ccollections
Counter
p0
((dp1
S'life-saving,'
p2
I1
sS'googleprogram'
p3
I1
sS'Campuses'
p4
I3
sS'dynamic'
p5
I12
sS'four'
p6
I3
sS'bXk'
p7
I1
sS'udGVudC'
p8
I1
sS'Monday,'
p9
I17
sS'Appeal'
p10
I4
sS'Until'
p11
I1
sS'Foundation'
p12
I12
sS'swag'
p13
I1
sS'V0IHY'
p14
I1
sS'Umbrella'
p15
I1
sS'calculate'
p16
I2
sS'Blizovsky'
p17
I10
sS'eligible'
p18
I5
sS'electricity'
p19
I1
sS'Starting'
p20
I20
sS'barrages'
p21
I1
sS'contained'
p22
I1
sS'Moodle'
p23
I4
sS'originality'
p24
I2
sS'teaching'
p25
I19
sS'Modon'
p26
I1
sS'zdHls'
p27
I1
sS'updated'
p28
I18
sS'saves'
p29
I1
sS'regional'
p30
I1
sS'advice.'
p31
I1
sS'Godin'
p32
I1
sS'Things'
p33
I1
sS'entitlements'
p34
I1
sS'updates'
p35
I7
sS'NzIuMHB0IDkwLjBwdCA'
p36
I1
sS'today.'
p37
I1
sS'today,'
p38
I5
sS'multiple'
p39
I1
sS'writing.'
p40
I1
sS'DQoJZm'
p41
I3
sS'basics'
p42
I1
sS'specify'
p43
I11
sS'prize'
p44
I7
sS'skills'
p45
I12
sS'companies'
p46
I32
sS'solution'
p47
I12
sS'Shapira'
p48
I5
sS'convenience'
p49
I19
sS'Lachish'
p50
I2
sS'franchisees'
p51
I1
sS'eR'
p52
I2
sS'offense.'
p53
I2
sS'heading'
p54
I1
sS'expanded'
p55
I1
sS'force'
p56
I1
sS'Negative'
p57
I1
sS'ccba'
p58
I2
sS'second'
p59
I55
sS'Hstodtim'
p60
I1
sS'implemented'
p61
I2
sS"Command's"
p62
I2
sS'errors'
p63
I2
sS'preferences'
p64
I63
sS'jewishagency.org'
p65
I1
sS'saved'
p66
I1
sS'Pregnant'
p67
I1
sS'contributed'
p68
I1
sS'4'
p69
I12
sS'candidates,'
p70
I1
sS'bonuses'
p71
I1
sS'new'
p72
I66
sS'tips'
p73
I4
sS'increasing'
p74
I2
sS'Kreitman'
p75
I13
sS'Xqten'
p76
I1
sS'courses.'
p77
I1
sS'10,'
p78
I3
sS'whose'
p79
I7
sS'Smooth'
p80
I2
sS'reasons.'
p81
I1
sS'here'
p82
I8
sS'courses:'
p83
I1
sS'reported'
p84
I1
sS'sustainability'
p85
I1
sS'active'
p86
I3
sS'DQovKiBTdHlsZSBEZWZpbml0aW'
p87
I1
sS'Diaspora'
p88
I2
sS'Motivation'
p89
I2
sS'kids'
p90
I1
sS"Amdocs'"
p91
I1
sS'ypiter'
p92
I3
sS'economics'
p93
I1
sS'reports'
p94
I3
sS'Hamas'
p95
I3
sS'credit'
p96
I1
sS'messaging.'
p97
I2
sS'JtYWwsIGxp'
p98
I1
sS'Choosing'
p99
I2
sS'crises'
p100
I1
sS'military'
p101
I7
sS'Alternative'
p102
I281
sS'suitable'
p103
I31
sS'Berlson'
p104
I1
sS'positions.'
p105
I2
sS'classification'
p106
I3
sS'eea0'
p107
I2
sS'St.'
p108
I1
sS'explained'
p109
I1
sS'Three'
p110
I1
sS'Relations'
p111
I1
sS'replace'
p112
I1
sS'psychological'
p113
I6
sS'Also'
p114
I2
sS'Immediate'
p115
I3
sS'stern'
p116
I1
sS'XXlyDXp'
p117
I1
sS'population.'
p118
I1
sS'"The'
p119
I1
sS'unit'
p120
I6
sS'presents'
p121
I1
sS'TASK'
p122
I1
sS'Indeed,'
p123
I1
sS'army'
p124
I4
sS'browse'
p125
I1
sS'TASC'
p126
I2
sS'Tadmor'
p127
I2
sS'coordinators'
p128
I4
sS'ruling,'
p129
I1
sS'files:'
p130
I1
sS'music'
p131
I2
sS'therefore'
p132
I12
sS'Fellowship,'
p133
I2
sS'recommend'
p134
I1
sS'strike'
p135
I1
sS'right.'
p136
I1
sS'type'
p137
I1
sS'until'
p138
I42
sS'Recent'
p139
I1
sS'ability.'
p140
I1
sS'Sorting'
p141
I1
sS'9,'
p142
I2
sS'populations'
p143
I1
sS'successful'
p144
I5
sS'brings'
p145
I1
sS'expose'
p146
I3
sS'under'
p147
I16
sS'Yeruham.'
p148
I1
sS'Assignments'
p149
I1
sS'Sonnenfeld,'
p150
I1
sS'former'
p151
I2
sS'midst'
p152
I1
sS'hold'
p153
I8
sS'xhc'
p154
I3
sS'Til'
p155
I1
sS'room'
p156
I23
sS'rights'
p157
I13
sS'pursue'
p158
I1
sS'Fellowships'
p159
I1
sS'roof'
p160
I1
sS'Steering'
p161
I1
sS'locker'
p162
I4
sS'exceptions'
p163
I2
sS'example'
p164
I3
sS'International'
p165
I6
sS'Reminder:'
p166
I2
sS'La'
p167
I1
sS'Chrome'
p168
I1
sS'organized'
p169
I2
sS'Lk'
p170
I2
sS'Reality'
p171
I1
sS'strengthen'
p172
I8
sS'July,'
p173
I4
sS'exercises,'
p174
I1
sS'want'
p175
I13
sS'exercises.'
p176
I3
sS'counseling'
p177
I1
sS'Sign'
p178
I2
sS'Ly'
p179
I1
sS'preferably'
p180
I2
sS'Deanat'
p181
I1
sS'travel'
p182
I3
sS'Attention'
p183
I3
sS'how'
p184
I24
sS'hot'
p185
I2
sS'tfibgu'
p186
I1
sS'answer'
p187
I7
sS'place'
p188
I143
sS'LX'
p189
I1
sS'A'
p190
I114
sS'Students'
p191
I350
sS"Defense's"
p192
I1
sS'Sigal'
p193
I1
sS'replacing'
p194
I1
sS'invitation'
p195
I28
sS'bXldeoINei'
p196
I1
sS'wrong'
p197
I1
sS'Park'
p198
I2
sS'Glicksman'
p199
I1
sS'president'
p200
I2
sS'summarize'
p201
I1
sS'types'
p202
I1
sS'purchase'
p203
I2
sS'All'
p204
I32
sS'effective'
p205
I16
sS'Stress,'
p206
I1
sS'Civil'
p207
I6
sS'headquarters'
p208
I20
sS'think'
p209
I4
sS'borsestudio'
p210
I1
sS'continuing.'
p211
I1
sS'democratic'
p212
I1
sS'operations'
p213
I2
sS'Even'
p214
I1
sS'Requirements'
p215
I9
sS'school.'
p216
I3
sS'Ptolemy'
p217
I1
sS'welcomed'
p218
I11
sS'Ymx'
p219
I1
sS'vary'
p220
I1
sS'Opportunities'
p221
I1
sS'google'
p222
I3
sS'affect'
p223
I2
sS'Noga'
p224
I1
sS'welcomes'
p225
I1
sS'His'
p226
I1
sS'"Etzion'
p227
I1
sS'fit'
p228
I1
sS'qqimupb'
p229
I1
sS'zevik'
p230
I1
sS'Shulamit'
p231
I1
sS','
p232
I13
sS'better'
p233
I2
sS'bddf0'
p234
I2
sS'Helen'
p235
I1
sS'hidden'
p236
I1
sS'Sheva.'
p237
I6
sS'easier'
p238
I3
sS'donors'
p239
I2
sS'welcome.'
p240
I3
sS'There'
p241
I38
sS'Odle'
p242
I1
sS'copying'
p243
I2
sS'combination'
p244
I2
sS'press'
p245
I1
sS'Challenge'
p246
I7
sS'Alon'
p247
I5
sS'school'
p248
I33
sS'Ocuments'
p249
I1
sS'academics'
p250
I2
sS'drinking'
p251
I1
sS'effects'
p252
I1
sS'schools'
p253
I7
sS"Ma'aleh"
p254
I3
sS'Derech'
p255
I1
sS'rhetoric'
p256
I2
sS'Copy'
p257
I1
sS'grammar'
p258
I1
sS'week,'
p259
I4
sS'week.'
p260
I5
sS'Indeed'
p261
I2
sS'D0c00'
p262
I1
sS'Planning'
p263
I2
sS"doctor's"
p264
I1
sS'higher'
p265
I10
sS'Mouse'
p266
I3
sS'side'
p267
I2
sS'approaching.'
p268
I1
sS"employers'"
p269
I2
sS'calmly'
p270
I1
sS'financial'
p271
I6
sS'XkteV'
p272
I1
sS'Attachments'
p273
I40
sS'series'
p274
I7
sS'correct,'
p275
I1
sS'principles'
p276
I2
sS'marital'
p277
I4
sS'carry'
p278
I4
sS'taught'
p279
I7
sS'gave'
p280
I1
sS'sukkah'
p281
I1
sS'Auditorium,'
p282
I2
sS'laboratory'
p283
I8
sS'Auditorium.'
p284
I10
sS'message'
p285
I84
sS'Motivating'
p286
I1
sS'mdC'
p287
I1
sS'rd'
p288
I1
sS're'
p289
I1
sS'encourage'
p290
I4
sS'message,'
p291
I1
sS'Rabbit'
p292
I2
sS'Basement'
p293
I1
sS'Uud'
p294
I3
sS'Carmi,'
p295
I3
sS'size'
p296
I4
sS'Correcting'
p297
I1
sS'available.'
p298
I1
sS'professions.'
p299
I1
sS'professions,'
p300
I2
sS'aid.'
p301
I1
sS'resume'
p302
I27
sS'Prerequisites'
p303
I3
sS'd0eebebf'
p304
I1
sS'University'
p305
I283
sS'Work'
p306
I6
sS'infin'
p307
I1
sS'managerial'
p308
I1
sS'Go'
p309
I6
sS'HaShalom'
p310
I1
sS'Vocals'
p311
I1
sS'faculties'
p312
I8
sS'socio-economic'
p313
I1
sS'iai'
p314
I2
sS'sensors'
p315
I1
sS'Soft'
p316
I1
sS'Hammas'
p317
I1
sS'competes'
p318
I3
sS'Monday'
p319
I43
sS'starts'
p320
I2
sS'bjews'
p321
I1
sS'messages'
p322
I1
sS'moment'
p323
I2
sS'Horn'
p324
I1
sS'speedy'
p325
I7
sS'Havayada'
p326
I1
sS'Human'
p327
I17
sS'ezratonim'
p328
I2
sS'purpose'
p329
I5
sS'Besser'
p330
I1
sS'features'
p331
I1
sS'Defense'
p332
I9
sS'grade'
p333
I16
sS'msword'
p334
I1
sS'Please'
p335
I159
sS'Due'
p336
I5
sS'Creative'
p337
I2
sS'Oriented'
p338
I3
sS"sender's"
p339
I1
sS'hear'
p340
I18
sS'Website'
p341
I24
sS'roni'
p342
I1
sS'service'
p343
I48
sS'engagement'
p344
I1
sS'girls'
p345
I2
sS'tbWFyZ'
p346
I3
sS'needed'
p347
I3
sS'master'
p348
I1
sS'listed'
p349
I16
sS'dwell'
p350
I1
sS'listen'
p351
I1
sS'Hall.'
p352
I4
sS'Hall,'
p353
I1
sS'guidelines'
p354
I17
sS'floor.'
p355
I1
sS'tokens'
p356
I1
sS'importantly,'
p357
I1
sS'task'
p358
I4
sS'Kaspi'
p359
I1
sS'ce0e'
p360
I1
sS'begins'
p361
I13
sS'anxiety'
p362
I24
sS'showed'
p363
I1
sS'milga'
p364
I3
sS'structures'
p365
I1
sS'registered,'
p366
I2
sS'efa0d'
p367
I3
sS'Cyber'
p368
I3
sS'project'
p369
I37
sS'matter'
p370
I2
sS'idle'
p371
I2
sS'Roza'
p372
I2
sS'www.'
p373
I3
sS'bgu.ac.il/docanat'
p374
I1
sS'gives'
p375
I1
sS'SPEED'
p376
I1
sS'acquisition'
p377
I2
sS'willingness'
p378
I1
sS'Chicago'
p379
I3
sS'fasts'
p380
I1
sS'Ea0c'
p381
I1
sS'election'
p382
I1
sS'modern'
p383
I1
sS'mine'
p384
I1
sS'well,'
p385
I1
sS'childcare'
p386
I2
sS'scholarships.'
p387
I2
sS'increment'
p388
I1
sS'bHQjVk'
p389
I1
sS'seen'
p390
I2
sS'seek'
p391
I3
sS'Ass'
p392
I1
sS'Then'
p393
I2
sS'tools.'
p394
I1
sS'marches.'
p395
I1
sS'ICT'
p396
I1
sS'Ilanot'
p397
I1
sS'responsible'
p398
I6
sS'eagerly'
p399
I1
sS'recommended'
p400
I7
sS'hYy'
p401
I2
sS'Minister'
p402
I1
sS'They'
p403
I6
sS'Prerequisites:'
p404
I1
sS'POB'
p405
I4
sS'Bank'
p406
I10
sS'Instructions'
p407
I5
sS'Directed'
p408
I1
sS'even'
p409
I6
sS'shall'
p410
I1
sS'see?'
p411
I1
sS'Wish'
p412
I1
sS'object'
p413
I9
sS'zXl'
p414
I1
sS'simplify'
p415
I4
sS'fees.'
p416
I1
sS'XXnyDXqNeX'
p417
I1
sS'mouth'
p418
I1
sS'letter'
p419
I25
sS'entry'
p420
I6
sS'see,'
p421
I1
sS'Comes'
p422
I1
sS'guidelines,'
p423
I2
sS'observation'
p424
I1
sS'guidelines.'
p425
I1
sS'doc'
p426
I1
sS'medical'
p427
I5
sS'camp'
p428
I1
sS'm'
p429
I11
sS'definitely'
p430
I2
sS'tech'
p431
I1
sS'Avoksis'
p432
I1
sS'mailing'
p433
I1
sS'came'
p434
I2
sS'pre-registration'
p435
I1
sS'discontent'
p436
I1
sS'Assignment'
p437
I1
sS'Taman'
p438
I2
sS'Union'
p439
I34
sS'meetings'
p440
I12
sS'Agency'
p441
I1
sS'syntax'
p442
I1
sS'Day.'
p443
I1
sS'determine'
p444
I2
sS'tailor-'
p445
I1
sS'stepping'
p446
I1
sS'participate'
p447
I52
sS'Tamar'
p448
I3
sS'200'
p449
I5
sS'Resources'
p450
I17
sS'lessons'
p451
I6
sS'Huberman'
p452
I2
sS"Bachelor's"
p453
I4
sS'copy'
p454
I79
sS'Caspi,'
p455
I1
sS'hi-tech'
p456
I1
sS'dekanat'
p457
I3
sS'menu'
p458
I1
sS'explain'
p459
I2
sS'Dance,'
p460
I1
sS'Free'
p461
I5
sS'theme'
p462
I3
sS'field.'
p463
I1
sS'about'
p464
I117
sS'field,'
p465
I1
sS'places.'
p466
I3
sS'integrate'
p467
I8
sS'folder'
p468
I9
sS'Bronze'
p469
I1
sS'Shafir'
p470
I3
sS'eff0'
p471
I3
sS'Technology,'
p472
I1
sS'stop'
p473
I3
sS'Days'
p474
I6
sS'meeting.'
p475
I4
sS'X'
p476
I1
sS'hwRGVmYXVsdA0KCXttc'
p477
I1
sS'comply'
p478
I2
sS'earn'
p479
I3
sS'bar'
p480
I2
sS'Mindfulness'
p481
I3
sS'fields'
p482
I20
sS'Officers,'
p483
I2
sS'd00'
p484
I2
sS'Neta'
p485
I3
sS'0bce'
p486
I2
sS'bag'
p487
I1
sS'Gutterman'
p488
I1
sS'tikshoov'
p489
I1
sS'three-year'
p490
I1
sS'architecture'
p491
I1
sS'baa'
p492
I2
sS'release'
p493
I1
sS'them.'
p494
I1
sS'fertility'
p495
I2
sS'lesson.'
p496
I1
sS'Completion'
p497
I2
sS'Partners'
p498
I2
sS'(S)'
p499
I1
sS'decides'
p500
I1
sS'fair'
p501
I22
sS'specialist'
p502
I1
sS'peripheral'
p503
I1
sS'testing'
p504
I2
sS'recruit'
p505
I4
sS'bi-weekly'
p506
I1
sS'Recommended'
p507
I1
sS'decided'
p508
I17
sS'result'
p509
I2
sS"Tze'elim"
p510
I6
sS'Summary'
p511
I2
sS'Android'
p512
I9
sS'best'
p513
I3
sS'deb0'
p514
I2
sS'03'
p515
I1
sS'00'
p516
I178
sS'Run'
p517
I2
sS'projects.'
p518
I3
sS'04'
p519
I1
sS'stairs.'
p520
I1
sS'lots'
p521
I1
sS'Registered'
p522
I1
sS"projects'"
p523
I2
sS'artificial'
p524
I4
sS'Purim'
p525
I8
sS'score'
p526
I16
sS'nXnCDXntep'
p527
I1
sS'Wednesdays'
p528
I7
sS'Livneh'
p529
I1
sS'0bcb'
p530
I2
sS'0.'
p531
I3
sS'Advanced'
p532
I7
sS'Files'
p533
I5
sS'C'
p534
I11
sS'never'
p535
I1
sS'Central'
p536
I2
sS'venture'
p537
I2
sS'extend'
p538
I1
sS'nature'
p539
I1
sS'combining'
p540
I1
sS'0B'
p541
I1
sS'0A'
p542
I3
sS'Bgu'
p543
I59
sS"'and"
p544
I9
sS'Dimona'
p545
I1
sS'modeling'
p546
I1
sS'0O'
p547
I4
sS'Otherwise'
p548
I1
sS'Ornamental'
p549
I1
sS'met'
p550
I7
sS'Wednesday.'
p551
I1
sS'country'
p552
I5
sS'Wednesday,'
p553
I13
sS'disseminate'
p554
I1
sS'pressure.'
p555
I1
sS'Self-Management'
p556
I3
sS'against'
p557
I8
sS'antiquities.'
p558
I1
sS'0c'
p559
I30
sS'0a'
p560
I15
sS'0f'
p561
I27
sS'lot.'
p562
I1
sS'0d'
p563
I10
sS'0e'
p564
I17
sS'ASUS'
p565
I1
sS'uni'
p566
I2
sS'0i'
p567
I1
sS'asked'
p568
I16
sS'pre'
p569
I1
sS'doubt,'
p570
I1
sS'0e0'
p571
I3
sS'doubt.'
p572
I1
sS'BCG'
p573
I2
sS'Iew'
p574
I1
sS'2nd'
p575
I5
sS'DM'
p576
I1
sS'Attachment'
p577
I9
sS'Closed'
p578
I6
sS'pregnancy'
p579
I1
sS'Sorry'
p580
I2
sS'inode'
p581
I2
sS'Movement'
p582
I1
sS'now.'
p583
I1
sS'C.'
p584
I1
sS'basis'
p585
I1
sS'union'
p586
I1
sS'three'
p587
I28
sS'.'
p588
I1
sS'Early'
p589
I1
sS'removed.'
p590
I1
sS'much'
p591
I2
sS'interest'
p592
I6
sS'basic'
p593
I2
sS'tutorials'
p594
I4
sS'entered'
p595
I2
sS'Candidacy'
p596
I3
sS'DQpbaHR0cDovL'
p597
I1
sS'Goals'
p598
I1
sS'website'
p599
I68
sS'life'
p600
I16
sS'January.'
p601
I1
sS'Front'
p602
I51
sS'held,'
p603
I1
sS'child'
p604
I10
sS'giyyus'
p605
I1
sS'weizmann'
p606
I2
sS'worked'
p607
I1
sS'CV'
p608
I19
sS'exception'
p609
I1
sS'Ch'
p610
I2
sS'Co'
p611
I3
sS'officers.'
p612
I1
sS'prestigious'
p613
I10
sS'Cc'
p614
I1
sS'Marine'
p615
I1
sS'Ben-Gurion'
p616
I86
sS'Cf'
p617
I1
sS'Ce'
p618
I1
sS'offices,'
p619
I1
sS'employ'
p620
I1
sS'Culture'
p621
I2
sS'near'
p622
I9
sS'Kippur'
p623
I2
sS'Fibonacci'
p624
I1
sS'appeals'
p625
I4
sS'e0dbafedbed0'
p626
I2
sS'balance'
p627
I4
sS'employees'
p628
I11
sS'guardianship'
p629
I1
sS'vulnerability'
p630
I1
sS'played'
p631
I1
sS'MTIuMHB0Ow0KCWZvbnQtZmFtaWx'
p632
I1
sS'graduation.'
p633
I1
sS'is'
p634
I688
sS'Responsible'
p635
I1
sS'explanation'
p636
I4
sS'Vacation'
p637
I2
sS'G'
p638
I2
sS'DDDDAD'
p639
I1
sS'yKNZ'
p640
I2
sS'il'
p641
I1742
sS'in'
p642
I1559
sS'victims'
p643
I3
sS'ib'
p644
I1
sS'ie'
p645
I1
sS'id'
p646
I161
sS'accepted.'
p647
I3
sS'if'
p648
I54
sS'rapprochement'
p649
I1
sS'memorial'
p650
I8
sS'Confirmation'
p651
I1
sS'specialization'
p652
I3
sS'entitles'
p653
I2
sS'make'
p654
I19
sS'Regional'
p655
I1
sS'practice,'
p656
I1
sS'Rights'
p657
I1
sS'gateways'
p658
I1
sS'big'
p659
I5
sS'program,'
p660
I6
sS'President'
p661
I16
sS'program.'
p662
I25
sS'entitled'
p663
I11
sS'meets'
p664
I3
sS'outside'
p665
I2
sS'Married'
p666
I3
sS'opportunita'
p667
I1
sS'PXldedINeq'
p668
I1
sS'blue'
p669
I1
sS'kit'
p670
I9
sS'Angeles'
p671
I4
sS'Morris'
p672
I2
sS'protected'
p673
I2
sS'opportunity'
p674
I34
sS'YXMtbWljcm'
p675
I1
sS'nNeZ'
p676
I1
sS'programs'
p677
I7
sS'Peripheral'
p678
I1
sS'mentors'
p679
I1
sS'academic'
p680
I69
sS'academia'
p681
I3
sS'Duration'
p682
I1
sS'quantitative'
p683
I1
sS'dghd'
p684
I1
sS'corporate'
p685
I4
sS'yours'
p686
I1
sS'left'
p687
I6
sS'protocol'
p688
I4
sS'Thank'
p689
I9
sS'just'
p690
I4
sS'upgrading'
p691
I3
sS'algorithmic,'
p692
I1
sS'ideas'
p693
I1
sS'assigned'
p694
I2
sS'financially'
p695
I3
sS'identify'
p696
I4
sS'human'
p697
I2
sS'Integrate'
p698
I1
sS'jXldeqLNee'
p699
I1
sS'yet'
p700
I8
sS'Happy'
p701
I18
sS'0NCnNwYW'
p702
I1
sS'enters'
p703
I1
sS'Ewing'
p704
I1
sS'candidate'
p705
I7
sS'equipment'
p706
I3
sS'hac'
p707
I1
sS'had'
p708
I1
sS'advancement'
p709
I1
sS'hag'
p710
I1
sS'Hermon'
p711
I1
sS'affinity'
p712
I3
sS'easy'
p713
I2
sS'News'
p714
I1
sS'has'
p715
I57
sS'ElPapora'
p716
I1
sS'Building'
p717
I110
sS'UvMjAwNC'
p718
I1
sS'Faculty'
p719
I39
sS'possible'
p720
I21
sS'possibly'
p721
I1
sS'birth'
p722
I1
sS'supervisory'
p723
I1
sS'unique'
p724
I20
sS'Positions'
p725
I2
sS'desire'
p726
I5
sS'brought'
p727
I4
sS'strengths'
p728
I3
sS'uaWwvP'
p729
I1
sS'udGVudD0iTWljcm'
p730
I1
sS'collection,'
p731
I1
sS'unnecessary'
p732
I2
sS'remind'
p733
I12
sS'Book'
p734
I1
sS'Are'
p735
I3
sS'testers'
p736
I2
sS'Further'
p737
I1
sS'Lachish.'
p738
I2
sS'collection:'
p739
I1
sS'Warren'
p740
I2
sS'www'
p741
I144
sS'right'
p742
I7
sS'crowd'
p743
I1
sS'people'
p744
I12
sS'WINDOWS'
p745
I1
sS'Basic'
p746
I1
sS'bbacd'
p747
I2
sS"library's"
p748
I3
sS'Application'
p749
I16
sS'Beer'
p750
I27
sS'Valid'
p751
I2
sS"Heroes'"
p752
I9
sS'emphases'
p753
I1
sS'Between'
p754
I8
sS'Off'
p755
I2
sS'first-come,'
p756
I1
sS'Piano'
p757
I1
sS'short-term'
p758
I2
sS'accessibility.'
p759
I1
sS'for'
p760
I1982
sS'collect'
p761
I6
sS'notification'
p762
I1
sS'JMP'
p763
I2
sS'Blessing'
p764
I1
sS'creative'
p765
I1
sS'track'
p766
I8
sS'individuals'
p767
I3
sS'Facebook'
p768
I35
sS'periphery'
p769
I3
sS'makers.'
p770
I1
sS'unstable'
p771
I1
sS'coordinator'
p772
I2
sS'Vadim'
p773
I1
sS'Daily'
p774
I1
sS'Participating'
p775
I1
sS'eee'
p776
I2
sS'municipality.'
p777
I1
sS'www.perach.org'
p778
I2
sS'paid'
p779
I6
sS'defensive'
p780
I1
sS'0dbf'
p781
I3
sS'saral'
p782
I1
sS'manufacturing'
p783
I1
sS'MjAlZDclOWMlZDclOTQlZDclOTklZDclOTUlZDclYWElMjAlZDclOTElZDclOWUlZDclYTglZDcl'
p784
I1
sS'Think'
p785
I1
sS'First'
p786
I20
sS"IAI's"
p787
I1
sS'rehearsal'
p788
I5
sS'empowerment'
p789
I2
sS'dollars'
p790
I1
sS'citizens'
p791
I4
sS'essential'
p792
I1
sS'cadre'
p793
I2
sS'Including'
p794
I3
sS'afternoon'
p795
I5
sS'Pregnancy'
p796
I4
sS'participation.'
p797
I1
sS'status.'
p798
I6
sS'slightly'
p799
I1
sS'Perach'
p800
I8
sS'consulting'
p801
I16
sS'Fee'
p802
I4
sS'statements'
p803
I2
sS'Knowledge'
p804
I13
sS'Krayot'
p805
I1
sS'university,'
p806
I2
sS'June'
p807
I12
sS'som'
p808
I2
sS'fkbM'
p809
I2
sS"world's"
p810
I2
sS'down'
p811
I1
sS'lies'
p812
I1
sS'education.'
p813
I1
sS'Management'
p814
I21
sS'reducing'
p815
I1
sS'dfaf'
p816
I2
sS'Regularly'
p817
I1
sS'Withholding'
p818
I1
sS'fields.'
p819
I6
sS'fields,'
p820
I2
sS'support'
p821
I19
sS'initial'
p822
I4
sS'one-time'
p823
I4
sS'systems.'
p824
I1
sS'Approaches'
p825
I1
sS'influencing'
p826
I1
sS'ybWFsVGFibGUiIGJvcmRlcj0i'
p827
I1
sS'call'
p828
I23
sS'halls'
p829
I4
sS'launching'
p830
I1
sS'happy'
p831
I36
sS'rXl'
p832
I1
sS'offering'
p833
I3
sS'offer'
p834
I12
sS'clinics'
p835
I1
sS'January'
p836
I6
sS"Students'"
p837
I18
sS'HaCohen'
p838
I4
sS'misunderstandings.'
p839
I1
sS'Students:'
p840
I1
sS'cmUud'
p841
I1
sS'hall.'
p842
I2
sS'havayeda'
p843
I3
sS'pavilion'
p844
I1
sS"else's"
p845
I1
sS'morning'
p846
I15
sS'attached'
p847
I1218
sS'Engineering'
p848
I65
sS'RTZC'
p849
I1
sS'Grateful'
p850
I1
sS'Parking'
p851
I14
sS'stages'
p852
I3
sS'Sir'
p853
I1
sS'Artillery.'
p854
I1
sS'strengthening'
p855
I2
sS'sight'
p856
I1
sS'Personal'
p857
I3
sS'science.'
p858
I1
sS'OiJUaW'
p859
I1
sS'proven'
p860
I25
sS'PGJvZHkgbGFuZz0iRU'
p861
I1
sS'vacate'
p862
I1
sS'exist'
p863
I1
sS'Gaza'
p864
I7
sS'floating'
p865
I3
sS'golani'
p866
I1
sS'posting'
p867
I1
sS'Elbitsystems'
p868
I1
sS'Maya'
p869
I1
sS'0:00.'
p870
I6
sS'floor'
p871
I14
sS'Ministry'
p872
I13
sS'excel'
p873
I6
sS'handed'
p874
I1
sS'rally'
p875
I6
sS'Persons'
p876
I3
sS'role'
p877
I7
sS'Okay,'
p878
I1
sS'Sheva'
p879
I31
sS'DocLib'
p880
I4
sS'Many'
p881
I2
sS'developers'
p882
I4
sS'Pages'
p883
I48
sS"'s"
p884
I5
sS'models'
p885
I5
sS'nXqNeV'
p886
I1
sS'Zevl'
p887
I1
sS'Sincerely,'
p888
I3
sS'Requesting'
p889
I1
sS'Ido'
p890
I1
sS'HOT'
p891
I1
sS'journey'
p892
I2
sS'begun.'
p893
I4
sS'variable'
p894
I4
sS'weekend'
p895
I4
sS'f0aaf'
p896
I1
sS'Tarbut"'
p897
I1
sS'happening'
p898
I3
sS'assume'
p899
I3
sS'nXqNep'
p900
I1
sS'nXpteo'
p901
I1
sS'invitations.'
p902
I1
sS'Second'
p903
I10
sS'time'
p904
I65
sS"'I"
p905
I1
sS'customary'
p906
I2
sS'Tango'
p907
I3
sS'there.'
p908
I1
sS'bT0iaHR0cDovL'
p909
I1
sS'manager'
p910
I2
sS'Ofakim'
p911
I1
sS'10th,'
p912
I1
sS'seller'
p913
I3
sS'ward'
p914
I1
sS'Plump'
p915
I2
sS'amplification'
p916
I8
sS'disorders'
p917
I1
sS'Fund'
p918
I19
sS'Exactly'
p919
I1
sS'Entrepreneurship'
p920
I1
sS'answered'
p921
I3
sS'bicycles'
p922
I2
sS'Lighting'
p923
I3
sS'marks'
p924
I1
sS'aspx'
p925
I50
sS'persevere'
p926
I1
sS'downloading'
p927
I5
sS'Prize'
p928
I6
sS'choice'
p929
I1
sS'ZNTCk'
p930
I3
sS'Comments'
p931
I1
sS'advised'
p932
I1
sS'Foundation.'
p933
I5
sS'Uri'
p934
I2
sS'exact'
p935
I6
sS'minute'
p936
I2
sS'Rana'
p937
I1
sS'did'
p938
I6
sS'Kalk'
p939
I1
sS'Tax'
p940
I2
sS'Accommodations'
p941
I3
sS'leave'
p942
I17
sS'mm'
p943
I450
sS'spaces'
p944
I2
sS'excellence'
p945
I5
sS'team'
p946
I21
sS'Tal'
p947
I3
sS'Role'
p948
I4
sS'Suzanne'
p949
I1
sS'mo'
p950
I1
sS'prevent'
p951
I16
sS'cbb'
p952
I1
sS'unexpected'
p953
I1
sS'dealing'
p954
I7
sS'Self-management'
p955
I1
sS'sign'
p956
I13
sS'Test'
p957
I7
sS'Deficit'
p958
I1
sS'patient'
p959
I1
sS'efdb'
p960
I3
sS'efdd'
p961
I1
sS'Participation'
p962
I11
sS'carpet.'
p963
I1
sS'bb'
p964
I23
sS'Subscriptions'
p965
I1
sS'ndXJpb'
p966
I1
sS'aade'
p967
I2
sS'Westphalia'
p968
I2
sS'current'
p969
I11
sS'looking'
p970
I25
sS'Kafiyot'
p971
I2
sS'international'
p972
I10
sS'Permissions'
p973
I1
sS'True'
p974
I1
sS'Hatalmid'
p975
I2
sS'roles.'
p976
I1
sS'Dates'
p977
I1
sS'Economics'
p978
I4
sS'transportation'
p979
I3
sS'f0de'
p980
I2
sS'Mm'
p981
I2
sS'Mi'
p982
I1
sS'understanding'
p983
I9
sS'address'
p984
I23
sS'alone'
p985
I2
sS'My'
p986
I4
sS'wait'
p987
I3
sS'boy'
p988
I1
sS'Computational'
p989
I2
sS'MA'
p990
I3
sS'Founder'
p991
I3
sS'Succah'
p992
I1
sS'MM'
p993
I3
sS'checksum'
p994
I2
sS'studied'
p995
I15
sS'funded'
p996
I3
sS'commonly'
p997
I1
sS'uzif'
p998
I2
sS'FudGVk'
p999
I1
sS'absenteeism'
p1000
I1
sS'MS'
p1001
I2
sS'high-tech'
p1002
I9
sS'Nitzan'
p1003
I2
sS'studies'
p1004
I58
sS'engineer'
p1005
I4
sS'tasks'
p1006
I7
sS'love'
p1007
I5
sS'DOC'
p1008
I1
sS'modul'
p1009
I2
sS'When'
p1010
I5
sS"Shachar's"
p1011
I1
sS'logical'
p1012
I2
sS'flexibility'
p1013
I1
sS'forefront'
p1014
I2
sS'public,'
p1015
I1
sS'sky'
p1016
I2
sS'August'
p1017
I7
sS'working'
p1018
I18
sS'positive'
p1019
I4
sS'give'
p1020
I13
sS'visit'
p1021
I14
sS'Deichman'
p1022
I2
sS'by'
p1023
I311
sS'Output'
p1024
I1
sS'going'
p1025
I2
sS'Sports'
p1026
I4
sS'Aerospace'
p1027
I5
sS'Altal'
p1028
I4
sS'films'
p1029
I1
sS'scope'
p1030
I1
sS'sharpen'
p1031
I1
sS'Those'
p1032
I4
sS'Incapsula,'
p1033
I1
sS'Sara'
p1034
I1
sS'series.'
p1035
I1
sS'subsistence'
p1036
I2
sS'curriculum'
p1037
I5
sS'faculty,'
p1038
I1
sS'faculty.'
p1039
I1
sS'Brak'
p1040
I1
sS'afff'
p1041
I3
sS'criteria.'
p1042
I1
sS'affd'
p1043
I2
sS'riders'
p1044
I1
sS'behalf'
p1045
I6
sS'bae0'
p1046
I2
sS'Ron'
p1047
I13
sS'film,'
p1048
I1
sS'displayed,'
p1049
I1
sS'quoting'
p1050
I1
sS'array'
p1051
I2
sS'dlw'
p1052
I1
sS'values'
p1053
I4
sS'awareness'
p1054
I1
sS'9th'
p1055
I6
sS'zXpNeV'
p1056
I1
sS'following'
p1057
I80
sS'Our'
p1058
I5
sS'+3.'
p1059
I1
sS'Children'
p1060
I2
sS'peoplehood'
p1061
I1
sS'classrooms'
p1062
I1
sS'Baruch'
p1063
I2
sS'Koby'
p1064
I2
sS'Weekends'
p1065
I1
sS'Digital'
p1066
I2
sS'teaspoons'
p1067
I3
sS'ZTsNCgl0ZXh0LWRlY'
p1068
I1
sS'Periphery'
p1069
I4
sS'heard,'
p1070
I1
sS'allowed'
p1071
I5
sS'Maimon'
p1072
I24
sS'Aroma'
p1073
I5
sS'nSDXldeb'
p1074
I1
sS'pages.'
p1075
I1
sS'Kislev,'
p1076
I2
sS'monitoring'
p1077
I5
sS'divided'
p1078
I1
sS'Who'
p1079
I5
sS'quality,'
p1080
I1
sS'chemical'
p1081
I1
sS'djzropcOMD'
p1082
I1
sS'sector.'
p1083
I1
sS'parameter'
p1084
I1
sS'These'
p1085
I6
sS'map'
p1086
I3
sS'b0ce'
p1087
I2
sS'recipients,'
p1088
I1
sS'b0cc'
p1089
I3
sS'modal'
p1090
I2
sS'coming'
p1091
I11
sS'may'
p1092
I90
sS'pbDxtYWlsdG'
p1093
I1
sS'Atudot'
p1094
I1
sS"Foundation's"
p1095
I1
sS'convincingly'
p1096
I1
sS'applications'
p1097
I18
sS'designed'
p1098
I22
sS'Bdikant'
p1099
I3
sS'date'
p1100
I35
sS'such'
p1101
I24
sS'data'
p1102
I14
sS'grow'
p1103
I1
sS'classroom.'
p1104
I3
sS'stress'
p1105
I13
sS'natural'
p1106
I4
sS'conscious'
p1107
I1
sS'applicant'
p1108
I3
sS'Dahan'
p1109
I6
sS'Welsh'
p1110
I1
sS'Flexibility'
p1111
I5
sS'so'
p1112
I24
sS'FudGVkLmNvLmlsIC0g'
p1113
I1
sS'definitions'
p1114
I2
sS'tutoring'
p1115
I15
sS'se'
p1116
I1
sS'Islam'
p1117
I4
sS'development.'
p1118
I2
sS'Shabtai'
p1119
I1
sS'rabbi'
p1120
I2
sS'wishing'
p1121
I2
sS'below.'
p1122
I4
sS'years'
p1123
I36
sS'course'
p1124
I86
sS'Savin'
p1125
I1
sS'experiments'
p1126
I11
sS'09,'
p1127
I1
sS'esteri'
p1128
I2
sS'equip'
p1129
I1
sS'tendency'
p1130
I1
sS'Lecturer'
p1131
I6
sS'inquiries,'
p1132
I1
sS'BPGDwWNlGdq'
p1133
I2
sS'thank'
p1134
I4
sS'AtYWx0OmF'
p1135
I2
sS'interesting'
p1136
I9
sS'months,'
p1137
I1
sS'amazing'
p1138
I2
sS'months.'
p1139
I1
sS'attraction'
p1140
I1
sS'suspicion'
p1141
I1
sS'policy'
p1142
I2
sS'mail'
p1143
I31
sS'main'
p1144
I2
sS'iloblrkmq'
p1145
I1
sS'Jack'
p1146
I1
sS'attached.'
p1147
I2
sS'surprises.'
p1148
I2
sS'finance'
p1149
I2
sS'recipients'
p1150
I3
sS'experiment,'
p1151
I3
sS'Deutsche'
p1152
I6
sS'experiment.'
p1153
I2
sS'year,'
p1154
I16
sS'records'
p1155
I1
sS'year.'
p1156
I16
sS'begun,'
p1157
I1
sS"kids'"
p1158
I1
sS'a0c'
p1159
I4
sS'Closing'
p1160
I4
sS'a0a'
p1161
I2
sS'a0f'
p1162
I5
sS'maintaining'
p1163
I1
sS'a0e'
p1164
I2
sS'Armored'
p1165
I2
sS'female'
p1166
I2
sS'Meetings'
p1167
I2
sS'revert'
p1168
I1
sS'Cfa'
p1169
I1
sS'Coordinator'
p1170
I6
sS'Minimum'
p1171
I2
sS'Deadline'
p1172
I13
sS'rock'
p1173
I2
sS'Panzani'
p1174
I2
sS'adbbaa'
p1175
I2
sS'xls'
p1176
I1
sS'Event'
p1177
I2
sS'square'
p1178
I3
sS'zdHlsZT'
p1179
I1
sS'examinations.'
p1180
I1
sS'revised'
p1181
I1
sS'Unanswered'
p1182
I1
sS'conventions'
p1183
I1
sS'breakthrough'
p1184
I1
sS'XXqjoNCteT'
p1185
I1
sS'stranieri'
p1186
I2
sS'Mandel'
p1187
I2
sS'entering'
p1188
I2
sS'Yungshu'
p1189
I2
sS'disabled.'
p1190
I1
sS'lesson'
p1191
I31
sS'description'
p1192
I3
sS'MAE'
p1193
I1
sS'3rd'
p1194
I1
sS'nXqCDXkdeQ'
p1195
I1
sS'Successful'
p1196
I1
sS'Regards'
p1197
I9
sS'Welcome'
p1198
I95
sS'MCIgY'
p1199
I1
sS'resilience'
p1200
I2
sS'populations.'
p1201
I1
sS'Job'
p1202
I60
sS'Key'
p1203
I1
sS'suggesting'
p1204
I1
sS'Detecting'
p1205
I1
sS'correct'
p1206
I5
sS'indicating'
p1207
I1
sS'Theater'
p1208
I2
sS'Places'
p1209
I1
sS'hairdresser'
p1210
I1
sS'million'
p1211
I2
sS'incentives'
p1212
I2
sS'ors'
p1213
I3
sS'possibility'
p1214
I11
sS'org'
p1215
I15
sS'communities'
p1216
I3
sS'alphas'
p1217
I2
sS'training'
p1218
I30
sS'Already'
p1219
I1
sS'language'
p1220
I15
sS'Being'
p1221
I2
sS'Federation'
p1222
I2
sS'Z'
p1223
I1
sS'renewal'
p1224
I3
sS'programming'
p1225
I14
sS'worrying'
p1226
I1
sS'thing'
p1227
I1
sS'shalom'
p1228
I1
sS'products.'
p1229
I2
sS'Yeruham'
p1230
I7
sS'fXmdeg'
p1231
I1
sS'LzQ0NA0KDQoNCg0KDQoNCg0K'
p1232
I1
sS'waited'
p1233
I1
sS'learning,'
p1234
I1
sS'Hamered'
p1235
I2
sS'saving'
p1236
I699
sS'evacuated.'
p1237
I1
sS'Humanities'
p1238
I6
sS'spoken'
p1239
I1
sS'question'
p1240
I26
sS'one'
p1241
I63
sS'Yam'
p1242
I1
sS'Black'
p1243
I5
sS'long'
p1244
I12
sS'suspended'
p1245
I2
sS'IeXBlcmxpbmtGb'
p1246
I1
sS'DXldeT'
p1247
I1
sS'ISA'
p1248
I2
sS'open'
p1249
I31
sS'discharged'
p1250
I7
sS'0accfd'
p1251
I2
sS'city'
p1252
I3
sS'little'
p1253
I1
sS'04:00'
p1254
I1
sS'limited'
p1255
I26
sS'biti'
p1256
I1
sS'syllabus'
p1257
I3
sS'anyone'
p1258
I7
sS'indicate'
p1259
I1
sS'yeshivas'
p1260
I1
sS'2'
p1261
I5
sS'Shlomi'
p1262
I1
sS'escort'
p1263
I1
sS'realization'
p1264
I5
sS'branch.'
p1265
I1
sS'Post'
p1266
I3
sS'bits'
p1267
I3
sS'speaking'
p1268
I1
sS'mining'
p1269
I2
sS'Martyrs'
p1270
I9
sS'on.'
p1271
I1
sS'ZXh0PSJlZGl0IiBk'
p1272
I1
sS'issues'
p1273
I3
sS'continuous'
p1274
I3
sS'Shemesh'
p1275
I1
sS'yoel'
p1276
I1
sS'Specifically'
p1277
I2
sS'Plner'
p1278
I1
sS'Smoking'
p1279
I2
sS'absorbs'
p1280
I3
sS'10'
p1281
I4
sS'Consulting'
p1282
I4
sS'15'
p1283
I1
sS'mimon'
p1284
I2
sS'Willingness'
p1285
I4
sS'DXldeq'
p1286
I1
sS'19'
p1287
I2
sS'summary'
p1288
I5
sS'updates,'
p1289
I1
sS'Insurance,'
p1290
I1
sS'NCjxtZXRhIGh0dHAtZXF'
p1291
I1
sS'Analytics'
p1292
I4
sS'future'
p1293
I24
sS'participate.'
p1294
I1
sS'were'
p1295
I36
sS'counselor'
p1296
I1
sS'1,'
p1297
I5
sS'page.'
p1298
I2
sS'illness'
p1299
I2
sS'Court'
p1300
I1
sS'BenGu'
p1301
I1
sS'topics'
p1302
I8
sS'sheet.'
p1303
I1
sS'turned'
p1304
I1
sS'Submit'
p1305
I1
sS'voices'
p1306
I3
sS'Field'
p1307
I7
sS'zXldeqINeR'
p1308
I1
sS"B'Av"
p1309
I2
sS'DX'
p1310
I1
sS'Announcements'
p1311
I3
sS'saw'
p1312
I1
sS'Do'
p1313
I10
sS'Dl'
p1314
I1
sS'Jewish'
p1315
I12
sS'kZXJsaW'
p1316
I1
sS'Dd'
p1317
I1
sS'Db'
p1318
I2
sS'note'
p1319
I41
sS'rehearsals'
p1320
I1
sS'Important'
p1321
I5
sS'nirelb'
p1322
I1
sS'take'
p1323
I159
sS'performance'
p1324
I6
sS'personalized'
p1325
I1
sS"Agency's"
p1326
I3
sS'Dr'
p1327
I8
sS'Hall'
p1328
I38
sS'Greetings'
p1329
I117
sS'Haklai'
p1330
I1
sS"teacher's"
p1331
I3
sS'handing'
p1332
I1
sS'semester.'
p1333
I12
sS'pain'
p1334
I2
sS'Name'
p1335
I2
sS'opposite'
p1336
I1
sS'buffer'
p1337
I2
sS'xIj'
p1338
I1
sS'sIiB'
p1339
I1
sS'buffet'
p1340
I1
sS'Concessionaires'
p1341
I1
sS'afternoon.'
p1342
I1
sS'printed'
p1343
I2
sS'sheets'
p1344
I2
sS'pair'
p1345
I1
sS'pais'
p1346
I1
sS'af0c'
p1347
I2
sS'inserted'
p1348
I2
sS'pages'
p1349
I7
sS'Auditorium'
p1350
I11
sS'D.'
p1351
I4
sS'benefits,'
p1352
I2
sS'benefits.'
p1353
I1
sS'DADDDDD'
p1354
I1
sS'especially'
p1355
I7
sS'City,'
p1356
I1
sS'Ms.'
p1357
I17
sS'average'
p1358
I17
sS'sale'
p1359
I1
sS'Rpb'
p1360
I1
sS'Strip'
p1361
I5
sS'Accounting'
p1362
I1
sS'Meravy'
p1363
I2
sS'review'
p1364
I3
sS'shot'
p1365
I2
sS'wur'
p1366
I1
sS'contemporary'
p1367
I2
sS'Graduate'
p1368
I2
sS'Systems'
p1369
I49
sS'threshold'
p1370
I6
sS'Gate'
p1371
I6
sS'label'
p1372
I1
sS'feedback'
p1373
I5
sS'evaluations'
p1374
I1
sS'Hours'
p1375
I7
sS'We'
p1376
I134
sS'enough'
p1377
I2
sS'liberation'
p1378
I2
sS'Leadership'
p1379
I3
sS'Studio'
p1380
I2
sS'equipped'
p1381
I1
sS'Services'
p1382
I16
sS'over'
p1383
I14
sS"'mentoring"
p1384
I1
sS'plump'
p1385
I2
sS'Applied'
p1386
I2
sS'Organizations'
p1387
I1
sS'Michal'
p1388
I1
sS'non-invasive'
p1389
I1
sS'usual,'
p1390
I1
sS'usual.'
p1391
I6
sS'get'
p1392
I29
sS'Hard-earned'
p1393
I1
sS'employers'
p1394
I9
sS'Large'
p1395
I1
sS'unimportant'
p1396
I2
sS'Products'
p1397
I1
sS'academic,'
p1398
I1
sS'Hello,'
p1399
I29
sS'conjunction'
p1400
I2
sS'secondary'
p1401
I3
sS'reading'
p1402
I11
sS'resource'
p1403
I2
sS'Service.'
p1404
I1
sS'Service,'
p1405
I2
sS'explore'
p1406
I2
sS'Service"'
p1407
I1
sS'worried'
p1408
I1
sS'schedule.'
p1409
I3
sS'E-Commerce'
p1410
I1
sS'period.'
p1411
I3
sS'source'
p1412
I3
sS'Lesson'
p1413
I5
sS'Education'
p1414
I6
sS'where'
p1415
I20
sS'communicated'
p1416
I1
sS'vision'
p1417
I4
sS'press.'
p1418
I1
sS'staff'
p1419
I75
sS"Na'amat."
p1420
I1
sS'survey.'
p1421
I3
sS'Publish'
p1422
I2
sS'seat'
p1423
I2
sS'Systems.'
p1424
I1
sS'Systems,'
p1425
I4
sS'approval.'
p1426
I1
sS'smooth,'
p1427
I1
sS'job.'
p1428
I1
sS'job,'
p1429
I1
sS'fXnNeUINec'
p1430
I1
sS'pm'
p1431
I6
sS'registering'
p1432
I2
sS'That'
p1433
I1
sS'Curriculum'
p1434
I1
sS'representatives'
p1435
I13
sS'forecast'
p1436
I1
sS'dormitory'
p1437
I1
sS'behind'
p1438
I2
sS'digest'
p1439
I68
sS'Determining'
p1440
I1
sS'yesterday'
p1441
I2
sS'Instructor'
p1442
I1
sS'across'
p1443
I2
sS'date.'
p1444
I1
sS'MKTt'
p1445
I1
sS'campaign'
p1446
I1
sS'infrastructure'
p1447
I2
sS'jobs'
p1448
I38
sS'parent'
p1449
I1
sS'Deanate'
p1450
I2
sS'approvals'
p1451
I3
sS'screen'
p1452
I2
sS'Hostilities'
p1453
I3
sS'Greeting'
p1454
I1
sS'Directors'
p1455
I2
sS'concentrate'
p1456
I1
sS'fellowship.'
p1457
I1
sS'Each'
p1458
I3
sS'singers'
p1459
I4
sS'spark'
p1460
I1
sS'jb'
p1461
I1
sS'concentrated'
p1462
I2
sS'dates'
p1463
I9
sS'Blustein'
p1464
I1
sS'many'
p1465
I12
sS'Sofer'
p1466
I2
sS'jn'
p1467
I1
sS'called'
p1468
I26
sS'deduction'
p1469
I6
sS'personal'
p1470
I34
sS'site,'
p1471
I6
sS'repertoire,'
p1472
I1
sS'Laboratory'
p1473
I3
sS'compound.'
p1474
I1
sS'expression'
p1475
I6
sS'Klezmer'
p1476
I1
sS'among'
p1477
I6
sS'forecasting'
p1478
I1
sS'12:00'
p1479
I1
sS'cancer'
p1480
I1
sS'ZXh0PSJlZGl0Ij'
p1481
I1
sS'ldeZ'
p1482
I1
sS'grants'
p1483
I4
sS'cancel'
p1484
I3
sS'http://model.blogspot.com'
p1485
I1
sS'disciplinary'
p1486
I6
sS'adults'
p1487
I4
sS'considering'
p1488
I1
sS'most'
p1489
I14
sS'Assembly'
p1490
I5
sS'capable'
p1491
I3
sS'Mincha'
p1492
I2
sS'conditions.'
p1493
I2
sS'ldeg'
p1494
I1
sS'vacation'
p1495
I3
sS'mark'
p1496
I2
sS'attaching'
p1497
I1
sS'workshop'
p1498
I77
sS'combined'
p1499
I1
sS'judging'
p1500
I4
sS'Modeling'
p1501
I1
sS'Exciting'
p1502
I1
sS'wants'
p1503
I2
sS'viewform'
p1504
I1
sS'enable'
p1505
I3
sS'COMP'
p1506
I2
sS'offered'
p1507
I3
sS'deloya'
p1508
I1
sS'observe'
p1509
I1
sS'wake'
p1510
I2
sS'Tp'
p1511
I1
sS'Learn'
p1512
I10
sS'Galit'
p1513
I3
sS'dropouts'
p1514
I1
sS'Round'
p1515
I3
sS'those'
p1516
I41
sS'granted'
p1517
I2
sS'sound'
p1518
I2
sS'employment,'
p1519
I1
sS'Formerly'
p1520
I2
sS'To'
p1521
I135
sS'consultant'
p1522
I2
sS'prominence'
p1523
I1
sS'single'
p1524
I14
sS'conditions:'
p1525
I2
sS'herukapp'
p1526
I1
sS'residence'
p1527
I1
sS'situation'
p1528
I15
sS'Admission'
p1529
I1
sS'Forums'
p1530
I24
sS'spotlight'
p1531
I6
sS'operate'
p1532
I2
sS'program'
p1533
I121
sS'conferences'
p1534
I2
sS'Transfer'
p1535
I2
sS'changes.'
p1536
I1
sS'Photocopiers'
p1537
I1
sS'according'
p1538
I36
sS'Looking'
p1539
I8
sS'middle'
p1540
I3
sS'Rovkovin'
p1541
I1
sS'XXkCLXnCDigJMg'
p1542
I1
sS'sameach'
p1543
I1
sS'Lecture'
p1544
I4
sS'scores.'
p1545
I1
sS'technology'
p1546
I4
sS'management.'
p1547
I1
sS'binary'
p1548
I2
sS'different'
p1549
I12
sS'missiles'
p1550
I1
sS'Intel'
p1551
I11
sS'fXkyDX'
p1552
I1
sS'preparatory'
p1553
I14
sS'Chemda'
p1554
I1
sS'tour'
p1555
I4
sS'same'
p1556
I12
sS'Mobile'
p1557
I2
sS'Sameh'
p1558
I1
sS'semesters'
p1559
I1
sS'Northern'
p1560
I1
sS'contain'
p1561
I2
sS'way.'
p1562
I2
sS'visually'
p1563
I1
sS'extended'
p1564
I5
sS'faculty'
p1565
I55
sS'I'
p1566
I63
sS'assist'
p1567
I9
sS'knowledge,'
p1568
I2
sS'Dicentes'
p1569
I1
sS'running'
p1570
I6
sS'wired'
p1571
I2
sS'Iron'
p1572
I3
sS'wcHQgOTAuMHB0'
p1573
I1
sS'Physics'
p1574
I3
sS'holders'
p1575
I1
sS'Degree'
p1576
I7
sS'0Y0iBO'
p1577
I2
sS'Employment'
p1578
I76
sS'semester,'
p1579
I3
sS'Ramadan'
p1580
I1
sS'May'
p1581
I28
sS'costs'
p1582
I2
sS'solve'
p1583
I4
sS'vassallo'
p1584
I1
sS'bottle'
p1585
I1
sS'trains'
p1586
I2
sS'allowance'
p1587
I2
sS'Golani'
p1588
I1
sS'scholarship'
p1589
I71
sS'summer'
p1590
I15
sS'malicious'
p1591
I1
sS'being'
p1592
I9
sS'PXnteqINeR'
p1593
I1
sS'adjustments'
p1594
I3
sS'Law.'
p1595
I2
sS'rest'
p1596
I9
sS'Plastic'
p1597
I1
sS'Daniel'
p1598
I3
sS'speretz'
p1599
I1
sS'Debate.'
p1600
I1
sS'DQoJbXNvLW'
p1601
I3
sS'applicants.'
p1602
I3
sS"Be'er"
p1603
I10
sS'weekly'
p1604
I14
sS'doctoral'
p1605
I1
sS'application'
p1606
I50
sS'Magbit'
p1607
I1
sS'Hacohen'
p1608
I10
sS'November.'
p1609
I1
sS'Pathways'
p1610
I1
sS'Although'
p1611
I1
sS'heseg'
p1612
I1
sS'extensive'
p1613
I2
sS'Mond'
p1614
I1
sS'around'
p1615
I10
sS'process,'
p1616
I1
sS'process.'
p1617
I4
sS'aceaa'
p1618
I3
sS'TF'
p1619
I1
sS'Algorithms'
p1620
I1
sS'preference'
p1621
I3
sS'wJSI'
p1622
I1
sS'groups.'
p1623
I2
sS'found.'
p1624
I1
sS'Example'
p1625
I1
sS'mod'
p1626
I362
sS'Operations'
p1627
I4
sS'malfunctions'
p1628
I3
sS'career.'
p1629
I1
sS'dHI'
p1630
I1
sS'identifying'
p1631
I4
sS'Sergio'
p1632
I9
sS'server'
p1633
I2
sS'facing'
p1634
I2
sS'chamber'
p1635
I3
sS'audience'
p1636
I6
sS'aWRtYXg'
p1637
I1
sS'miraculous'
p1638
I1
sS'Kaufman'
p1639
I1
sS'served'
p1640
I4
sS'Defense.'
p1641
I2
sS'dlZA0KCXttc'
p1642
I1
sS'tuition,'
p1643
I2
sS'tuition.'
p1644
I1
sS'auditorium'
p1645
I3
sS'Chanukah'
p1646
I4
sS'conditional'
p1647
I1
sS'winds'
p1648
I1
sS'supplementary'
p1649
I4
sS'FLL'
p1650
I3
sS'members,'
p1651
I1
sS'Nev'
p1652
I1
sS'New'
p1653
I11
sS'Skeg'
p1654
I1
sS'Ner'
p1655
I1
sS'Breakdown'
p1656
I1
sS'scholarships'
p1657
I61
sS'societies.'
p1658
I1
sS'confirm'
p1659
I3
sS'fringeB'
p1660
I1
sS'ability'
p1661
I7
sS'Answers'
p1662
I3
sS'critical'
p1663
I4
sS'exit'
p1664
I6
sS'ddc'
p1665
I2
sS'ddb'
p1666
I1
sS'dda'
p1667
I8
sS'moderate'
p1668
I1
sS'ddf'
p1669
I2
sS'Projects'
p1670
I2
sS'refer'
p1671
I2
sS'problem.'
p1672
I1
sS'specializing'
p1673
I2
sS'clarifications,'
p1674
I1
sS'scientific'
p1675
I2
sS'Shabbaton'
p1676
I1
sS'internship'
p1677
I1
sS'problems'
p1678
I4
sS'hacvana'
p1679
I1
sS'Indirection'
p1680
I1
sS'visits'
p1681
I1
sS'Goodbye'
p1682
I2
sS'entrance.'
p1683
I1
sS'refers'
p1684
I3
sS'Rotem'
p1685
I1
sS'Project,'
p1686
I1
sS'stone'
p1687
I1
sS'Tasks'
p1688
I1
sS'staff,'
p1689
I4
sS'acf'
p1690
I2
sS'ace'
p1691
I2
sS'industry'
p1692
I7
sS'dd0'
p1693
I2
sS'develops'
p1694
I2
sS'gzer'
p1695
I1
sS'Check'
p1696
I5
sS'practical'
p1697
I8
sS'community.'
p1698
I1
sS'applications,'
p1699
I1
sS'act'
p1700
I8
sS'Mentored'
p1701
I1
sS'Message'
p1702
I2
sS'luck'
p1703
I2
sS'scholarship,'
p1704
I3
sS'scholarship.'
p1705
I10
sS'Nm'
p1706
I7
sS'burning'
p1707
I2
sS'No'
p1708
I17
sS'image'
p1709
I3
sS'Nc'
p1710
I2
sS'Advancement'
p1711
I66
sS'strike,'
p1712
I1
sS'Degrees'
p1713
I1
sS'Maintenance'
p1714
I3
sS'parties'
p1715
I2
sS'pivot'
p1716
I2
sS'valuable'
p1717
I1
sS'morning,'
p1718
I1
sS'morning.'
p1719
I7
sS'Week'
p1720
I4
sS'pharmaceutical'
p1721
I1
sS'trip,'
p1722
I1
sS'X-rays'
p1723
I1
sS'her'
p1724
I6
sS'Collection'
p1725
I1
sS'includes,'
p1726
I2
sS'PXqNeaINeU'
p1727
I1
sS'springboard'
p1728
I2
sS'cebab'
p1729
I2
sS'recommends'
p1730
I1
sS'complete'
p1731
I9
sS'Kalach'
p1732
I3
sS'Transition'
p1733
I1
sS'pleased'
p1734
I19
sS'Ab'
p1735
I1
sS'Panel'
p1736
I4
sS'services.'
p1737
I3
sS'technologies'
p1738
I6
sS'with'
p1739
I371
sS'buying'
p1740
I1
sS'IPAD'
p1741
I2
sS'fQ0Kd'
p1742
I1
sS'miss.'
p1743
I2
sS'arranged'
p1744
I1
sS'fQ0Kb'
p1745
I1
sS'House'
p1746
I53
sS'OWIlZDclOTZfNjAweDY'
p1747
I1
sS'bbf'
p1748
I4
sS'deadline,'
p1749
I1
sS'Aliyah'
p1750
I1
sS'Avi'
p1751
I2
sS'Close'
p1752
I2
sS'IDUg'
p1753
I1
sS'aa'
p1754
I27
sS'ac'
p1755
I1725
sS'ab'
p1756
I22
sS'ae'
p1757
I23
sS'ad'
p1758
I36
sS'videos'
p1759
I2
sS'Retrieving'
p1760
I1
sS'C0a'
p1761
I1
sS'forgot'
p1762
I1
sS'am'
p1763
I17
sS'Thursday'
p1764
I47
sS'an'
p1765
I208
sS'How'
p1766
I10
sS'as'
p1767
I209
sS'Production'
p1768
I1
sS'at'
p1769
I567
sS'file'
p1770
I94
sS'studies.'
p1771
I8
sS'IYlWzj'
p1772
I2
sS'cables'
p1773
I1
sS'hbWU'
p1774
I2
sS'attendance.'
p1775
I1
sS'fill'
p1776
I23
sS'Real'
p1777
I2
sS'again'
p1778
I6
sS'Beer-Sheva,'
p1779
I4
sS'seminar'
p1780
I7
sS'Algebra'
p1781
I2
sS'Read'
p1782
I3
sS'personnel'
p1783
I1
sS'drivers'
p1784
I1
sS'Flute'
p1785
I1
sS'As'
p1786
I26
sS'graduate'
p1787
I14
sS'field'
p1788
I29
sS'Cancellation'
p1789
I2
sS'IS0tW'
p1790
I2
sS'Karuni'
p1791
I1
sS'PGh0bWwgeG'
p1792
I1
sS'shelter'
p1793
I1
sS'translated'
p1794
I5
sS'Employees'
p1795
I3
sS'goo'
p1796
I24
sS'Practical'
p1797
I2
sS'a0'
p1798
I21
sS'important'
p1799
I32
sS'itself,'
p1800
I1
sS'Science,'
p1801
I2
sS'subjects.'
p1802
I1
sS'failures'
p1803
I6
sS'dropbox'
p1804
I1
sS'Explanations'
p1805
I2
sS'Uzif'
p1806
I1
sS'JAVA'
p1807
I2
sS'Rabbi'
p1808
I15
sS'scroll'
p1809
I1
sS'Hardware'
p1810
I1
sS'Thermal'
p1811
I1
sS'Street'
p1812
I4
sS'mass'
p1813
I968
sS'wherever'
p1814
I1
sS'Stalls'
p1815
I1
sS'starting'
p1816
I24
sS'ffebdd'
p1817
I2
sS'Canada'
p1818
I1
sS'represent'
p1819
I1
sS'consider'
p1820
I1
sS'zdHlsZS'
p1821
I1
sS'declaration'
p1822
I3
sS'orsee'
p1823
I1
sS'About'
p1824
I2
sS'founded'
p1825
I1
sS'Station'
p1826
I1
sS'welfare'
p1827
I1
sS'counselors'
p1828
I11
sS'children'
p1829
I5
sS'causes'
p1830
I2
sS'secretary-general'
p1831
I1
sS'Strictness'
p1832
I2
sS'message.'
p1833
I1
sS'0NCmE'
p1834
I1
sS'0gKNeR'
p1835
I1
sS'to'
p1836
I1964
sS'territory.'
p1837
I3
sS'shredding'
p1838
I2
sS'af0fa'
p1839
I2
sS'th'
p1840
I13
sS'homepage'
p1841
I12
sS'tc'
p1842
I4
sS'Examination.'
p1843
I1
sS"practitioner's"
p1844
I2
sS'Training'
p1845
I9
sS'returned'
p1846
I7
sS'returning'
p1847
I6
sS'tour.'
p1848
I1
sS'is,'
p1849
I2
sS'Copywriter'
p1850
I1
sS'pbD'
p1851
I1
sS'pbC'
p1852
I1
sS'difference'
p1853
I3
sS'gOV0'
p1854
I2
sS'condition'
p1855
I3
sS'Examinations'
p1856
I2
sS'Noam'
p1857
I1
sS'dXJsKCNkZWZhdWx0'
p1858
I1
sS'accompanying'
p1859
I4
sS'at:'
p1860
I2
sS'Arabs'
p1861
I2
sS'employment.'
p1862
I1
sS'joined'
p1863
I1
sS'Course'
p1864
I6
sS'Avia'
p1865
I1
sS'Berlson.'
p1866
I1
sS'Druze'
p1867
I1
sS'Rector'
p1868
I7
sS'small'
p1869
I9
sS'Soldiers'
p1870
I13
sS'Must'
p1871
I1
sS'has,'
p1872
I1
sS'Zvi'
p1873
I8
sS"University's"
p1874
I20
sS're-register'
p1875
I1
sS'hour.'
p1876
I9
sS'Should'
p1877
I1
sS'past'
p1878
I7
sS'Department,'
p1879
I6
sS'Only'
p1880
I10
sS'Department.'
p1881
I1
sS'expedition'
p1882
I1
sS'physics,'
p1883
I1
sS'pass'
p1884
I4
sS'Join'
p1885
I4
sS'ccbaa'
p1886
I2
sS'investment'
p1887
I1
sS'material'
p1888
I8
sS'meetings,'
p1889
I1
sS'abd'
p1890
I2
sS'abe'
p1891
I6
sS'clock'
p1892
I1
sS'disruptions'
p1893
I2
sS'section'
p1894
I10
sS'centers'
p1895
I6
sS'Cultural'
p1896
I1
sS"Motors'"
p1897
I1
sS'method'
p1898
I5
sS'movement'
p1899
I6
sS'Ezratonim'
p1900
I1
sS'full'
p1901
I24
sS'Psychologists'
p1902
I1
sS'component'
p1903
I1
sS'WebSim'
p1904
I1
sS'hours'
p1905
I76
sS'Contact'
p1906
I11
sS'operating'
p1907
I16
sS'tolerance'
p1908
I1
sS'investigating'
p1909
I1
sS'Analytical'
p1910
I2
sS'psychometric'
p1911
I2
sS'publishes'
p1912
I1
sS'search'
p1913
I26
sS'shavityo'
p1914
I1
sS'Open'
p1915
I3
sS'introductory'
p1916
I4
sS'Shmuel'
p1917
I1
sS'experience'
p1918
I34
sS'Gil'
p1919
I12
sS'prior'
p1920
I2
sS'social'
p1921
I40
sS'action'
p1922
I1
sS'streamline'
p1923
I1
sS'baedc'
p1924
I2
sS'GzJaBN0S'
p1925
I1
sS'notified'
p1926
I3
sS'authorize'
p1927
I1
sS'qualtrics'
p1928
I1
sS'followed'
p1929
I8
sS'vip'
p1930
I5
sS'Difficulties'
p1931
I2
sS'Orly'
p1932
I1
sS'0ZWQuY'
p1933
I2
sS'establish'
p1934
I2
sS'bbda'
p1935
I3
sS'select'
p1936
I7
sS'Additional'
p1937
I439
sS'FyZWVyQGJndS'
p1938
I2
sS'attendance'
p1939
I1
sS'Rabin'
p1940
I6
sS'objectives'
p1941
I1
sS'two'
p1942
I33
sS'aebd'
p1943
I2
sS'characteristics'
p1944
I3
sS'Meaningful'
p1945
I1
sS'achieving'
p1946
I1
sS'more'
p1947
I81
sS'Ophir,'
p1948
I1
sS'fellow'
p1949
I8
sS'tester'
p1950
I2
sS'company'
p1951
I27
sS'Instruction'
p1952
I1
sS'corrected'
p1953
I1
sS'http://model.blogspot.com/forum/index.php'
p1954
I1
sS'documents:'
p1955
I2
sS'telephone'
p1956
I8
sS'Kosher'
p1957
I2
sS'tested'
p1958
I2
sS'controlling'
p1959
I2
sS'Bhbi'
p1960
I1
sS'particular'
p1961
I5
sS'Found'
p1962
I1
sS'documents.'
p1963
I5
sS'AIR'
p1964
I2
sS'Spotlight'
p1965
I4
sS'individuals:'
p1966
I4
sS'Yahoo!'
p1967
I1
sS'parse'
p1968
I2
sS'keeping'
p1969
I1
sS'include'
p1970
I16
sS'Laboratories.'
p1971
I1
sS'hour'
p1972
I29
sS'science'
p1973
I5
sS'specializes'
p1974
I1
sS'intercepted'
p1975
I3
sS'guards'
p1976
I2
sS'4:00'
p1977
I3
sS'pressing'
p1978
I1
sS'sent'
p1979
I46
sS'learn'
p1980
I30
sS'dea'
p1981
I2
sS'online.'
p1982
I1
sS'ded'
p1983
I2
sS'Your'
p1984
I10
sS'Conference'
p1985
I2
sS'hours:'
p1986
I2
sS'bdfa'
p1987
I4
sS'scan'
p1988
I3
sS'convenience.'
p1989
I1
sS'convenience,'
p1990
I1
sS'suggestions'
p1991
I2
sS'Stress'
p1992
I1
sS'accept'
p1993
I1
sS'mod.gov.il'
p1994
I1
sS'states'
p1995
I2
sS'minimum'
p1996
I1
sS'numbers'
p1997
I6
sS'purchased'
p1998
I1
sS'hours.'
p1999
I6
sS'instructions,'
p2000
I1
sS'instructions.'
p2001
I1
sS'Folders'
p2002
I2
sS'information'
p2003
I83
sS'siren'
p2004
I2
sS'giving.'
p2005
I1
sS'needy'
p2006
I4
sS'management,'
p2007
I1
sS'Expires'
p2008
I1
sS'j'
p2009
I1
sS'maps'
p2010
I2
sS'Infinity'
p2011
I3
sS'before'
p2012
I33
sS'bit'
p2013
I3
sS'Hanegev'
p2014
I2
sS'Compatibility'
p2015
I1
sS'plant'
p2016
I2
sS'continues'
p2017
I3
sS"today's"
p2018
I1
sS'kapushon'
p2019
I1
sS'number.'
p2020
I2
sS'advice'
p2021
I1
sS'List'
p2022
I1
sS'state.'
p2023
I1
sS'synagogue'
p2024
I3
sS'waves'
p2025
I1
sS'participant'
p2026
I7
sS'appealed'
p2027
I2
sS'Referral'
p2028
I1
sS'response'
p2029
I2
sS'fascinating'
p2030
I18
sS'Ameda'
p2031
I1
sS'Collecting'
p2032
I3
sS'P'
p2033
I2
sS'Shaked.'
p2034
I1
sS'register'
p2035
I40
sS'seconds'
p2036
I1
sS'map,'
p2037
I1
sS'Wishing'
p2038
I1
sS'responsibility'
p2039
I1
sS'cases.'
p2040
I1
sS'Hebrew'
p2041
I29
sS'geographic'
p2042
I3
sS'Salads'
p2043
I1
sS'retrieval'
p2044
I1
sS"that's"
p2045
I1
sS'army.'
p2046
I1
sS'Altel'
p2047
I2
sS'clarifications'
p2048
I1
sS'cost,'
p2049
I1
sS'Appellant'
p2050
I1
sS'Html'
p2051
I1
sS'through'
p2052
I43
sS'Interior,'
p2053
I1
sS'replies'
p2054
I17
sS'suffer'
p2055
I9
sS'wcHQgNzkyLjBwdDsNCgltYXJnaW'
p2056
I1
sS'its'
p2057
I31
sS'Working'
p2058
I1
sS'energies'
p2059
I1
sS'course.'
p2060
I11
sS'course,'
p2061
I6
sS'late'
p2062
I3
sS'Hayas'
p2063
I1
sS'misunderstandings'
p2064
I2
sS'drushim'
p2065
I1
sS'2,'
p2066
I3
sS'Cuments'
p2067
I2
sS'it.'
p2068
I1
sS'it,'
p2069
I1
sS'good'
p2070
I17
sS'Bar'
p2071
I1
sS'thinking,'
p2072
I1
sS'seeking'
p2073
I1
sS'sign,'
p2074
I1
sS'VuZGlmXS0tPg0KPHRpdGxlPmJndS'
p2075
I1
sS'Michael'
p2076
I1
sS'encouraging'
p2077
I1
sS'Youth'
p2078
I1
sS"Shabtai's"
p2079
I1
sS'laboratory.'
p2080
I1
sS'later.'
p2081
I1
sS'laboratory,'
p2082
I1
sS'practitioners,'
p2083
I1
sS'Saving'
p2084
I11
sS"Governor's"
p2085
I4
sS'pregnant'
p2086
I2
sS'coping'
p2087
I6
sS'all.'
p2088
I1
sS'assemblies'
p2089
I1
sS'all,'
p2090
I6
sS'continuation.'
p2091
I1
sS'Conventions'
p2092
I3
sS'courses'
p2093
I41
sS'token'
p2094
I3
sS'habits'
p2095
I1
sS'deteriorated'
p2096
I2
sS'Pola'
p2097
I1
sS'gender'
p2098
I1
sS'found'
p2099
I29
sS'mukes'
p2100
I1
sS'Freisler'
p2101
I1
sS'everyone'
p2102
I63
sS'Rosh'
p2103
I2
sS'mental'
p2104
I2
sS'Pressy'
p2105
I3
sS'house'
p2106
I4
sS'universities'
p2107
I4
sS'reduce'
p2108
I2
sS'Rosa'
p2109
I2
sS'police'
p2110
I14
sS'engaging'
p2111
I1
sS'Setting'
p2112
I1
sS'daf'
p2113
I3
sS'connect'
p2114
I3
sS'Subsidized'
p2115
I1
sS'measurement'
p2116
I1
sS'operation'
p2117
I10
sS'XLS'
p2118
I1
sS'really'
p2119
I2
sS'ftp'
p2120
I3
sS'funding'
p2121
I8
sS'missed'
p2122
I1
sS'research'
p2123
I26
sS'participants'
p2124
I16
sS'Construction'
p2125
I2
sS'computer.'
p2126
I1
sS'print'
p2127
I4
sS'Prof.'
p2128
I41
sS'Class'
p2129
I7
sS'Miluim'
p2130
I1
sS'risen'
p2131
I1
sS'Miriam.'
p2132
I1
sS'auditions'
p2133
I12
sS'Rokach'
p2134
I1
sS'IT'
p2135
I1
sS'environment,'
p2136
I1
sS'Nine'
p2137
I2
sS'members'
p2138
I78
sS'Ow0KCWZvbnQtZmFtaWx'
p2139
I1
sS'Uni'
p2140
I1
sS'Shmilovitz.'
p2141
I1
sS'beginning'
p2142
I18
sS'onsite'
p2143
I2
sS'definition'
p2144
I4
sS'owners'
p2145
I1
sS'benefits'
p2146
I4
sS'deleting'
p2147
I1
sS'Eg'
p2148
I1
sS'computers'
p2149
I13
sS'Ec'
p2150
I2
sS'Years'
p2151
I1
sS'Dorad'
p2152
I2
sS'ISM'
p2153
I1
sS'elective'
p2154
I3
sS'w'
p2155
I2
sS'Shoam'
p2156
I1
sS'Fortunately'
p2157
I2
sS'Economist'
p2158
I2
sS'tVVMiIGxpbms'
p2159
I1
sS'major'
p2160
I1
sS'forwards'
p2161
I3
sS'recruiting'
p2162
I6
sS'Farhi'
p2163
I1
sS'number'
p2164
I73
sS'Participants'
p2165
I3
sS'general'
p2166
I14
sS'done'
p2167
I6
sS'shoam'
p2168
I2
sS'Genesis'
p2169
I2
sS'heads'
p2170
I2
sS'guest'
p2171
I1
sS'introduction'
p2172
I2
sS'Guardian'
p2173
I1
sS'5th'
p2174
I1
sS'threatening'
p2175
I1
sS'least'
p2176
I23
sS'player'
p2177
I3
sS'etalyza'
p2178
I1
sS'aa0'
p2179
I2
sS'statement'
p2180
I2
sS'dfe'
p2181
I6
sS'ECS'
p2182
I1
sS'Rudy'
p2183
I1
sS'dff'
p2184
I2
sS'dfa'
p2185
I3
sS'Interviews'
p2186
I2
sS'dfb'
p2187
I4
sS'first-degree'
p2188
I4
sS'warmly'
p2189
I2
sS'secretariat'
p2190
I8
sS'park'
p2191
I4
sS'interviewed'
p2192
I1
sS'immediate'
p2193
I18
sS'cfc'
p2194
I5
sS'part'
p2195
I29
sS'dddd'
p2196
I2
sS'dddf'
p2197
I2
sS'sold'
p2198
I1
sS'Problem'
p2199
I2
sS'believe'
p2200
I3
sS'stairs'
p2201
I1
sS'secretarial'
p2202
I1
sS'aaf'
p2203
I1
sS'aac'
p2204
I4
sS'Contra'
p2205
I1
sS'Shortcuts'
p2206
I1
sS'Partnership'
p2207
I1
sS'df0'
p2208
I1
sS'vocal'
p2209
I13
sS'youth'
p2210
I4
sS'determined'
p2211
I6
sS'marriage'
p2212
I3
sS'RpdGxlPg0KPHN0eWxlPjwhLS0NCi'
p2213
I1
sS'perachda'
p2214
I1
sS'charger'
p2215
I4
sS'Cancel'
p2216
I3
sS'Xs'
p2217
I1
sS'Concentration'
p2218
I1
sS'Click'
p2219
I6
sS'interactive'
p2220
I1
sS'Dhn'
p2221
I1
sS'service.'
p2222
I7
sS'JkU'
p2223
I2
sS'drums'
p2224
I1
sS'graffiti'
p2225
I1
sS'1:00'
p2226
I1
sS'KRU'
p2227
I1
sS'KiB'
p2228
I3
sS'aged'
p2229
I1
sS'qdeX'
p2230
I1
sS'folder.'
p2231
I1
sS'IMPACT'
p2232
I2
sS'paths'
p2233
I2
sS'hotels.'
p2234
I1
sS'Marriage'
p2235
I2
sS'built'
p2236
I2
sS'depending'
p2237
I2
sS'Club'
p2238
I6
sS'self'
p2239
I2
sS'aXY'
p2240
I1
sS'Adva'
p2241
I1
sS'click'
p2242
I94
sS'self-service'
p2243
I1
sS'also'
p2244
I51
sS'self-management'
p2245
I2
sS'internal'
p2246
I3
sS'directives'
p2247
I2
sS'build'
p2248
I4
sS"hour's"
p2249
I1
sS'Dlih'
p2250
I1
sS'npdf'
p2251
I467
sS'YWx0OmF'
p2252
I1
sS'folders'
p2253
I1
sS'bde'
p2254
I4
sS'order,'
p2255
I2
sS'OTk'
p2256
I3
sS'departmental'
p2257
I3
sS'Ceea'
p2258
I1
sS'Yungsh'
p2259
I3
sS'Consultant'
p2260
I3
sS'M'
p2261
I5
sS'professionalize'
p2262
I1
sS'Ati'
p2263
I1
sS"franchisee's"
p2264
I1
sS'coordinate'
p2265
I3
sS"Haya's"
p2266
I1
sS'plan'
p2267
I10
sS'Applications,'
p2268
I1
sS'services'
p2269
I16
sS'loan'
p2270
I9
sS'NCjxvOnNoYXBlbGF'
p2271
I1
sS'note:'
p2272
I1
sS'Google'
p2273
I14
sS'Publication'
p2274
I1
sS'sometimes'
p2275
I2
sS'Encouraging'
p2276
I2
sS"Center's"
p2277
I2
sS'Cost'
p2278
I10
sS'artistic'
p2279
I1
sS'exp'
p2280
I1
sS'ccb'
p2281
I2
sS'Cloud'
p2282
I5
sS'joining'
p2283
I2
sS'sector'
p2284
I3
sS'jnau'
p2285
I1
sS'pd'
p2286
I1
sS'particularly'
p2287
I3
sS'gates'
p2288
I15
sS'detection'
p2289
I1
sS'scattered'
p2290
I1
sS'accommodations'
p2291
I1
sS'session'
p2292
I4
sS'writeM'
p2293
I1
sS'carefully'
p2294
I4
sS'algorithms'
p2295
I2
sS'find'
p2296
I24
sS'Kingdom'
p2297
I1
sS'NvbnRlbnQudmlwbHVzLmNvbS'
p2298
I1
sS'giant'
p2299
I1
sS'Bass'
p2300
I2
sS'fepeler@exchange.bgu.ac.il'
p2301
I1
sS'TXnNeZ'
p2302
I1
sS'distributed'
p2303
I15
sS'waiting'
p2304
I14
sS'Labs'
p2305
I5
sS'failed'
p2306
I2
sS'marathons'
p2307
I24
sS'Hebrew.'
p2308
I1
sS'Hebrew)'
p2309
I2
sS'Rect'
p2310
I2
sS'network.'
p2311
I1
sS'out.'
p2312
I3
sS'fueling'
p2313
I1
sS'permission'
p2314
I1
sS'capital'
p2315
I2
sS'zOm'
p2316
I1
sS'Amdocs'
p2317
I3
sS'de0fc'
p2318
I2
sS'Responsibility'
p2319
I2
sS'preparing'
p2320
I3
sS'weeks,'
p2321
I1
sS'zaXplOjEyLjBwdDsNCglmb'
p2322
I2
sS'Yeruha'
p2323
I1
sS"weeks'"
p2324
I1
sS'0:00'
p2325
I44
sS'fc0'
p2326
I6
sS'marathon,'
p2327
I1
sS'remove'
p2328
I3
sS'meals,'
p2329
I1
sS'regulations,'
p2330
I1
sS'exercise'
p2331
I12
sS'Members,'
p2332
I1
sS'Multi-scope'
p2333
I1
sS'OiJDYWxpYnJpIiwic'
p2334
I1
sS'Discharged'
p2335
I15
sS'Gmail'
p2336
I3
sS'set'
p2337
I10
sS'For'
p2338
I130
sS'Section.'
p2339
I1
sS'Create'
p2340
I3
sS'startup'
p2341
I1
sS'VyaWYiOw0KCWRpc'
p2342
I1
sS'see'
p2343
I42
sS'individual'
p2344
I3
sS'Scope'
p2345
I1
sS'tender'
p2346
I2
sS'faa0ee'
p2347
I2
sS'acts'
p2348
I2
sS'seminars'
p2349
I5
sS'#'
p2350
I2
sS'baritone'
p2351
I2
sS'degree'
p2352
I35
sS'expert'
p2353
I2
sS'Towers'
p2354
I1
sS'currently'
p2355
I6
sS'please'
p2356
I139
sS'front,'
p2357
I1
sS'classes'
p2358
I17
sS'Printed'
p2359
I1
sS'envelopes'
p2360
I2
sS'Postal'
p2361
I1
sS'gianluigi'
p2362
I1
sS'Negev.'
p2363
I15
sS'Negev,'
p2364
I18
sS'knowing'
p2365
I1
sS'Hostile'
p2366
I1
sS'yearbook'
p2367
I4
sS's'
p2368
I1
sS'interfaces'
p2369
I1
sS'Programming'
p2370
I6
sS'Serves'
p2371
I1
sS'mingling'
p2372
I1
sS'percent'
p2373
I2
sS'interface'
p2374
I2
sS'Served'
p2375
I1
sS"company's"
p2376
I5
sS'Dana'
p2377
I1
sS'Scholarship'
p2378
I19
sS'f'
p2379
I233
sS'last'
p2380
I37
sS'restaurant'
p2381
I13
sS'annual'
p2382
I3
sS'bachelor'
p2383
I1
sS'Amutot'
p2384
I6
sS'Strategic'
p2385
I3
sS'connection'
p2386
I3
sS'Unit'
p2387
I27
sS'pdf'
p2388
I774
sS'Yes'
p2389
I3
sS'mean'
p2390
I2
sS'approve'
p2391
I2
sS'simulations'
p2392
I3
sS'offered.'
p2393
I2
sS'point'
p2394
I4
sS'simple'
p2395
I2
sS'acted'
p2396
I5
sS'Resumes'
p2397
I3
sS'community'
p2398
I5
sS'Dome'
p2399
I3
sS'(IAI)'
p2400
I4
sS'simply'
p2401
I1
sS'adaptation'
p2402
I2
sS'shutdown'
p2403
I1
sS'VjdXJlLndhbnRlZC'
p2404
I1
sS"student's"
p2405
I8
sS'IFJvbWFuIiwi'
p2406
I1
sS'throughout'
p2407
I14
sS'0NCmRpdi'
p2408
I1
sS'expensive'
p2409
I1
sS'Timeshares'
p2410
I1
sS'Calculus'
p2411
I1
sS'b0c'
p2412
I3
sS'publishing'
p2413
I1
sS'cb0df'
p2414
I3
sS'PostsSpokenman'
p2415
I1
sS'format,'
p2416
I1
sS'milgotdarom'
p2417
I1
sS'acceptance'
p2418
I3
sS'Attachment:'
p2419
I1
sS'www.namat.org.il'
p2420
I1
sS'Train'
p2421
I1
sS'classification.'
p2422
I2
sS'meeting'
p2423
I104
sS'treatment'
p2424
I2
sS'firm'
p2425
I8
sS'fire'
p2426
I1
sS'iLCJzZXJpZiI'
p2427
I1
sS'global,'
p2428
I2
sS'dance,'
p2429
I2
sS'Altman,'
p2430
I1
sS'ecosystem'
p2431
I1
sS'fund'
p2432
I3
sS'gal'
p2433
I2
sS'seTsNCglmb'
p2434
I1
sS'representative'
p2435
I23
sS'Drill'
p2436
I4
sS'towns'
p2437
I1
sS'nrw'
p2438
I1
sS'Promovitch'
p2439
I1
sS'Menza'
p2440
I1
sS'handling'
p2441
I2
sS'Old'
p2442
I2
sS'vXoNehLCDXnNeU'
p2443
I1
sS'exponential'
p2444
I1
sS'enrollment'
p2445
I1
sS'bill'
p2446
I1
sS'technical'
p2447
I7
sS'Yair'
p2448
I1
sS'College'
p2449
I1
sS'Studies,'
p2450
I1
sS'evaluating'
p2451
I2
sS'Marker'
p2452
I1
sS'real'
p2453
I7
sS'XXqiDXldee'
p2454
I1
sS'Hi'
p2455
I5
sS'century'
p2456
I1
sS'Concessions'
p2457
I3
sS'calculator'
p2458
I1
sS'level,'
p2459
I1
sS'Delay'
p2460
I1
sS'E-mail'
p2461
I2
sS'Viola'
p2462
I1
sS'Proposal'
p2463
I1
sS'nXldedLCDXoNeZ'
p2464
I1
sS'Kol'
p2465
I2
sS'Yerucham.'
p2466
I2
sS'bitahon'
p2467
I1
sS'read'
p2468
I13
sS'emphasize'
p2469
I2
sS'Favorites'
p2470
I6
sS'Address'
p2471
I1
sS'Rat,'
p2472
I1
sS'forgiveness'
p2473
I2
sS'one-hour'
p2474
I2
sS'development'
p2475
I36
sS'passwords'
p2476
I1
sS'Acts,'
p2477
I1
sS'd0ebebf'
p2478
I1
sS'keys'
p2479
I1
sS'assignment'
p2480
I3
sS"HOT's"
p2481
I1
sS'defeat'
p2482
I2
sS'quieter'
p2483
I1
sS'alert'
p2484
I1
sS'caeb'
p2485
I2
sS'viewing'
p2486
I693
sS'levels'
p2487
I4
sS'disability,'
p2488
I2
sS'stack'
p2489
I11
sS'focal'
p2490
I1
sS'recent'
p2491
I5
sS'Limited'
p2492
I1
sS'Ratt'
p2493
I1
sS'action,'
p2494
I1
sS'psychserv'
p2495
I18
sS'Religious'
p2496
I1
sS'jby'
p2497
I1
sS'Son'
p2498
I1
sS'person'
p2499
I5
sS'Rate'
p2500
I1
sS'Economic'
p2501
I30
sS"Who's"
p2502
I1
sS'Names'
p2503
I1
sS'thoroughly'
p2504
I1
sS'BCmniGRz'
p2505
I2
sS'organization'
p2506
I23
sS'Programmer'
p2507
I2
sS'Jerusalem'
p2508
I9
sS'Tools'
p2509
I17
sS'prevention'
p2510
I4
sS'cfdc'
p2511
I3
sS'one-year'
p2512
I1
sS'project.'
p2513
I3
sS'Catechumens'
p2514
I1
sS'lottery'
p2515
I1
sS'Fundamentals'
p2516
I3
sS'-'
p2517
I54
sS'matter,'
p2518
I1
sS'aroma'
p2519
I2
sS'Armin'
p2520
I3
sS'world'
p2521
I23
sS'lives,'
p2522
I2
sS'alternative'
p2523
I2
sS'fXkSDXqdecINeU'
p2524
I1
sS'udC'
p2525
I4
sS"Let's"
p2526
I3
sS'Anielewicz'
p2527
I1
sS'Departmental'
p2528
I4
sS'ciIgY'
p2529
I1
sS'surprises'
p2530
I1
sS'admission'
p2531
I6
sS'alternate'
p2532
I13
sS'attractive'
p2533
I2
sS'Holidays'
p2534
I4
sS'pillars'
p2535
I1
sS'INSTITUTE'
p2536
I1
sS'nXldeqINeW'
p2537
I1
sS'parents'
p2538
I3
sS'location'
p2539
I6
sS'disk.'
p2540
I1
sS'nXnSDXnNeU'
p2541
I1
sS'contrary'
p2542
I1
sS'Http:'
p2543
I5
sS'administrative'
p2544
I8
sS'app'
p2545
I2
sS'On'
p2546
I65
sS'Welcoming'
p2547
I6
sS'emergency'
p2548
I20
sS'Did'
p2549
I1
sS'Of'
p2550
I13
sS'instructors'
p2551
I4
sS'Ob'
p2552
I1
sS'arrest,'
p2553
I1
sS'private'
p2554
I4
sS'Cello'
p2555
I1
sS'Position'
p2556
I2
sS'Requests'
p2557
I1
sS'Moshenberg.'
p2558
I1
sS'Or'
p2559
I4
sS'projects'
p2560
I14
sS'submission,'
p2561
I2
sS'Deanate,'
p2562
I3
sS'd'
p2563
I303
sS'OF'
p2564
I1
sS'Cohen'
p2565
I3
sS'jobs.'
p2566
I2
sS'OC'
p2567
I1
sS'Highly'
p2568
I2
sS'communications'
p2569
I1
sS'continue'
p2570
I27
sS'submission:'
p2571
I1
sS'Session'
p2572
I3
sS'Berach'
p2573
I1
sS'Exit'
p2574
I2
sS'reader.'
p2575
I2
sS'OS'
p2576
I2
sS'Promovitz'
p2577
I1
sS'lZGl'
p2578
I1
sS'grouped'
p2579
I1
sS'Hapayis'
p2580
I3
sS'aspx.'
p2581
I1
sS'methods'
p2582
I2
sS'mornings.'
p2583
I1
sS'absolutely'
p2584
I1
sS'back'
p2585
I4
sS'b0'
p2586
I18
sS'examples'
p2587
I2
sS"HaTa'amim"
p2588
I1
sS'curious'
p2589
I1
sS'battalion'
p2590
I2
sS'ourselves'
p2591
I3
sS'aed'
p2592
I1
sS'scale'
p2593
I1
sS'events'
p2594
I15
sS'extension.'
p2595
I1
sS'decision'
p2596
I3
sS'measurements'
p2597
I1
sS'integration'
p2598
I2
sS'per'
p2599
I46
sS'connecting'
p2600
I1
sS'verbally'
p2601
I1
sS'deserve?'
p2602
I1
sS'bd'
p2603
I29
sS'be'
p2604
I649
sS'bf'
p2605
I27
sS'bg'
p2606
I3
sS'December.'
p2607
I1
sS'ba'
p2608
I30
sS'fXlCDXkdeg'
p2609
I1
sS'bc'
p2610
I35
sS'aWR0aD0iMTAwJSIgc'
p2611
I1
sS'bm'
p2612
I1
sS'example,'
p2613
I6
sS'continuing'
p2614
I6
sS'use'
p2615
I19
sS'O'
p2616
I21
sS'David'
p2617
I10
sS'bt'
p2618
I4
sS'from'
p2619
I330
sS'relating'
p2620
I1
sS'Bracha'
p2621
I9
sS'Hello'
p2622
I79
sS'bD'
p2623
I1
sS'zip'
p2624
I6
sS'anything'
p2625
I2
sS'zXp'
p2626
I2
sS'graduation'
p2627
I1
sS'reduced'
p2628
I2
sS'regular'
p2629
I10
sS'Digest'
p2630
I1
sS'exams.'
p2631
I4
sS'Accumulated'
p2632
I2
sS'exams,'
p2633
I3
sS'okun'
p2634
I1
sS'repair'
p2635
I1
sS'computational'
p2636
I3
sS'ebe'
p2637
I2
sS'librarians'
p2638
I1
sS'into'
p2639
I22
sS'Shay'
p2640
I1
sS'integral'
p2641
I1
sS'Young'
p2642
I6
sS'YXk'
p2643
I1
sS'appropriate'
p2644
I7
sS'Shared'
p2645
I4
sS'HFC'
p2646
I2
sS'Shai'
p2647
I2
sS'Arrive'
p2648
I2
sS'dispatched'
p2649
I10
sS'spending'
p2650
I1
sS'Explanation'
p2651
I7
sS'Army'
p2652
I1
sS'submit'
p2653
I21
sS'Theater.'
p2654
I1
sS'Fc'
p2655
I1
sS'User'
p2656
I3
sS'suit'
p2657
I3
sS'forward'
p2658
I21
sS'Approval'
p2659
I2
sS'Wanted'
p2660
I5
sS'Come'
p2661
I14
sS'opens'
p2662
I2
sS'strives'
p2663
I1
sS'Regarding'
p2664
I3
sS'invite'
p2665
I43
sS'NCjxtZXRhIG'
p2666
I1
sS'Dknat'
p2667
I2
sS'relaxed'
p2668
I1
sS'usp'
p2669
I1
sS'Holocaust'
p2670
I11
sS'interested.'
p2671
I1
sS'Moby'
p2672
I1
sS'link'
p2673
I138
sS'cooperation.'
p2674
I1
sS'hopes'
p2675
I1
sS'Whats'
p2676
I1
sS'line'
p2677
I7
sS'0Solution'
p2678
I1
sS'posted'
p2679
I90
sS'directed'
p2680
I2
sS'rejection'
p2681
I1
sS'Office'
p2682
I10
sS'requesting'
p2683
I2
sS'Disabilities'
p2684
I1
sS'up'
p2685
I52
sS'us'
p2686
I37
sS'mature'
p2687
I1
sS'Sense'
p2688
I1
sS"Tennenbaum's"
p2689
I1
sS'alarm'
p2690
I3
sS'meal.'
p2691
I1
sS'storing'
p2692
I1
sS'TXm'
p2693
I1
sS'supervisor'
p2694
I2
sS'hbHQ'
p2695
I3
sS'defined'
p2696
I2
sS'start-up'
p2697
I1
sS'Dr.'
p2698
I36
sS'influence'
p2699
I10
sS'e-mails'
p2700
I1
sS'engineering'
p2701
I34
sS'http://www.model.com/forum/forum/modules/forum/forum/forum/modules/forum/forum/forum/modules/forum/forum/modules/forum/forum/viewtopic.php?f=f=en&topic=1&title=&topic=1&topic=1&topic=1&topic=1&topic=1&topic=1&topic=1&topic=1&topic=1&topic=1&topic=1'
p2702
I1
sS'newcomers'
p2703
I1
sS'Memory'
p2704
I3
sS'organizational'
p2705
I1
sS'cafd'
p2706
I2
sS'letters.'
p2707
I1
sS'Presentation'
p2708
I7
sS'perach'
p2709
I6
sS'whom'
p2710
I3
sS'codes'
p2711
I1
sS'keslassy'
p2712
I3
sS'Tester'
p2713
I1
sS'Hillel'
p2714
I1
sS'WeWork'
p2715
I1
sS'invalid'
p2716
I1
sS'preventing'
p2717
I1
sS'Career'
p2718
I129
sS'Mac'
p2719
I1
sS'points'
p2720
I5
sS'coded'
p2721
I1
sS'ellen'
p2722
I4
sS'Student'
p2723
I155
sS'Markus'
p2724
I1
sS'proposal'
p2725
I2
sS'supervisor,'
p2726
I1
sS'jXlSDXkNeqINeU'
p2727
I1
sS'Gurion'
p2728
I84
sS'explaining'
p2729
I1
sS'Ity'
p2730
I1
sS'e-mail.'
p2731
I1
sS'e-mail,'
p2732
I2
sS'Teva'
p2733
I1
sS'Technology'
p2734
I12
sS'e-mail:'
p2735
I2
sS'cooperate'
p2736
I1
sS'meals'
p2737
I6
sS'invitations'
p2738
I1
sS'methodologies'
p2739
I1
sS'age'
p2740
I3
sS'vehicles'
p2741
I4
sS'Procession'
p2742
I1
sS'Its'
p2743
I1
sS'servizi'
p2744
I1
sS'train'
p2745
I3
sS'2006'
p2746
I3
sS'dot'
p2747
I1
sS'copy.'
p2748
I1
sS'enrolled'
p2749
I8
sS'Resilience'
p2750
I1
sS'fresh'
p2751
I1
sS'careercenterbgu'
p2752
I22
sS'2009'
p2753
I6
sS'having'
p2754
I1
sS'cvwebmail'
p2755
I1
sS'code'
p2756
I26
sS'partial'
p2757
I1
sS'Clarification'
p2758
I1
sS'results'
p2759
I10
sS'http://www.shani.gov.il'
p2760
I1
sS'existing'
p2761
I1
sS'disabilities'
p2762
I13
sS'Doubt'
p2763
I1
sS'Progress'
p2764
I1
sS'CPU'
p2765
I4
sS'Notice'
p2766
I7
sS'Seeking'
p2767
I1
sS'young'
p2768
I8
sS'send'
p2769
I41
sS'intensive'
p2770
I2
sS'uniqueness'
p2771
I3
sS'helps'
p2772
I1
sS'Fulbarmacher'
p2773
I1
sS'Sponsored'
p2774
I4
sS'resources'
p2775
I1
sS'refreshments,'
p2776
I1
sS'center.'
p2777
I1
sS'LXJpZ'
p2778
I1
sS'center,'
p2779
I1
sS'labels'
p2780
I1
sS'Hanukkah'
p2781
I19
sS'0LWZhbWlseToi'
p2782
I1
sS'Region'
p2783
I1
sS'Smilies'
p2784
I17
sS'reopened'
p2785
I1
sS'result.'
p2786
I1
sS'Insert'
p2787
I1
sS'Not'
p2788
I6
sS'bf00'
p2789
I2
sS'Seder'
p2790
I1
sS'Fixed'
p2791
I1
sS'Difficult'
p2792
I2
sS'arrange'
p2793
I5
sS'entire'
p2794
I8
sS'f0c'
p2795
I4
sS'succeed'
p2796
I2
sS'VGltZXMgTmV'
p2797
I1
sS'transmission'
p2798
I1
sS'shock'
p2799
I1
sS'eve'
p2800
I1
sS'classrooms.'
p2801
I1
sS'anxious'
p2802
I5
sS'Talking'
p2803
I2
sS'race'
p2804
I1
sS'restoring'
p2805
I1
sS'jXldem'
p2806
I1
sS'ODkvMjU'
p2807
I1
sS'LXqdeV'
p2808
I1
sS'Select'
p2809
I9
sS'VjdGlvbjE'
p2810
I1
sS'educators'
p2811
I1
sS'other.'
p2812
I2
sS'effd'
p2813
I4
sS'Term'
p2814
I1
sS'Fast'
p2815
I3
sS'Status'
p2816
I1
sS'recruitment'
p2817
I10
sS'video'
p2818
I2
sS'enclosed'
p2819
I1
sS'Criteria'
p2820
I1
sS'dynamics'
p2821
I1
sS'week'
p2822
I61
sS'index'
p2823
I83
sS'Entrance'
p2824
I6
sS'Yosef'
p2825
I3
sS'business'
p2826
I7
sS'resident.'
p2827
I1
sS'giving'
p2828
I5
sS"Microsoft's"
p2829
I1
sS'Alan'
p2830
I4
sS'availability'
p2831
I1
sS'access'
p2832
I11
sS'consistently'
p2833
I1
sS'HTML'
p2834
I2
sS'turnaround'
p2835
I2
sS'expresses'
p2836
I1
sS'fQ0KcA0KCXtt'
p2837
I1
sS'miles.'
p2838
I1
sS'(In'
p2839
I2
sS'odG'
p2840
I1
sS'body'
p2841
I4
sS'ddba'
p2842
I2
sS'led'
p2843
I4
sS'exchange'
p2844
I9
sS'gathered'
p2845
I2
sS'suicidality'
p2846
I2
sS'answered.'
p2847
I2
sS'Kalach.'
p2848
I2
sS'Kalach,'
p2849
I6
sS'Prior'
p2850
I1
sS'applicable,'
p2851
I1
sS'objects'
p2852
I2
sS'let'
p2853
I5
sS'others'
p2854
I4
sS'sing'
p2855
I2
sS'great'
p2856
I5
sS'talent'
p2857
I1
sS'Z0LmNvbS'
p2858
I1
sS'Chinese'
p2859
I2
sS'receive'
p2860
I51
sS'Intelligence'
p2861
I4
sS'Ttp'
p2862
I1
sS'Dikanat'
p2863
I1
sS'Mirkin'
p2864
I17
sS'inconvenience.'
p2865
I3
sS'leadership'
p2866
I1
sS'survey'
p2867
I4
sS'FirstComeFirstServed'
p2868
I1
sS'opinion'
p2869
I1
sS'residents'
p2870
I3
sS'makes'
p2871
I2
sS'honor'
p2872
I8
sS'involves'
p2873
I1
sS'Staff'
p2874
I49
sS'composed'
p2875
I1
sS'named'
p2876
I1
sS'Behavior'
p2877
I1
sS'prize.'
p2878
I1
sS'Leading'
p2879
I3
sS'bSkiPg0KPCEtLVtp'
p2880
I1
sS'multi-function'
p2881
I1
sS'names'
p2882
I6
sS'FF'
p2883
I1
sS'Answer'
p2884
I36
sS'tools'
p2885
I15
sS'gateway'
p2886
I1
sS'standing'
p2887
I3
sS'Korm'
p2888
I3
sS'confidence'
p2889
I1
sS'bazaar'
p2890
I1
sS'thirsty'
p2891
I1
sS'certificate'
p2892
I8
sS'publication,'
p2893
I2
sS'yYXRpb'
p2894
I1
sS'next'
p2895
I43
sS'ministero'
p2896
I1
sS'doubt'
p2897
I2
sS'Sapir'
p2898
I1
sS'bf0a'
p2899
I2
sS'Keren'
p2900
I1
sS'faddd'
p2901
I1
sS'themselves'
p2902
I6
sS'Squeeze'
p2903
I1
sS'E'
p2904
I4
sS'Fn'
p2905
I8
sS'JEQ'
p2906
I3
sS'upcoming'
p2907
I1
sS'acb'
p2908
I2
sS'tax'
p2909
I7
sS'cdd0d'
p2910
I2
sS'kiosk'
p2911
I2
sS'occurred'
p2912
I2
sS'wonder'
p2913
I1
sS'carrying'
p2914
I2
sS'prizes'
p2915
I2
sS'MsIGxpLmV'
p2916
I1
sS'potential'
p2917
I2
sS'subscription'
p2918
I2
sS'Shulimson'
p2919
I2
sS'account'
p2920
I6
sS'Rifles'
p2921
I1
sS'practicing'
p2922
I1
sS'staff.'
p2923
I3
sS'integrating'
p2924
I2
sS'this'
p2925
I271
sS'challenge'
p2926
I7
sS'Library'
p2927
I4
sS'client'
p2928
I1
sS'drill'
p2929
I3
sS'industrial'
p2930
I6
sS'closing'
p2931
I2
sS'rehabilitation'
p2932
I1
sS'Details'
p2933
I34
sS'experiential'
p2934
I1
sS'violence'
p2935
I1
sS'Police'
p2936
I9
sS'abca'
p2937
I2
sS'process'
p2938
I32
sS'second-year'
p2939
I2
sS'infantry'
p2940
I1
sS'purposes'
p2941
I1
sS'high'
p2942
I17
sS'effectively'
p2943
I1
sS'Written'
p2944
I1
sS'reserves'
p2945
I2
sS'Proven'
p2946
I2
sS'Www'
p2947
I4
sS'block.'
p2948
I1
sS'scholarship?'
p2949
I1
sS'building,'
p2950
I1
sS'YW'
p2951
I3
sS'building.'
p2952
I9
sS'class.'
p2953
I1
sS'sOyBjaGFyc'
p2954
I1
sS'class,'
p2955
I2
sS'volunteer.'
p2956
I1
sS'aff'
p2957
I2
sS'holds'
p2958
I3
sS'afa'
p2959
I3
sS'delay'
p2960
I1
sS'Preference'
p2961
I1
sS'0bc'
p2962
I4
sS'constraints'
p2963
I1
sS'intelligent'
p2964
I1
sS'Payment'
p2965
I6
sS'Solutions'
p2966
I1
sS'profile'
p2967
I1
sS'buildings'
p2968
I3
sS'y'
p2969
I1
sS'Natham'
p2970
I1
sS'npd'
p2971
I1
sS'await'
p2972
I1
sS'Request'
p2973
I3
sS'educational'
p2974
I4
sS'collection'
p2975
I1
sS'dc'
p2976
I29
sS'Q'
p2977
I9
sS'submitted.'
p2978
I1
sS'fcbe'
p2979
I2
sS"programmer's"
p2980
I1
sS'efficiently'
p2981
I1
sS'realized'
p2982
I1
sS'Apple'
p2983
I4
sS'Tzahi'
p2984
I1
sS'Sunday,'
p2985
I22
sS'counter'
p2986
I2
sS'lines'
p2987
I3
sS'robot'
p2988
I3
sS'One'
p2989
I6
sS'Meital'
p2990
I2
sS'Csfi'
p2991
I1
sS'allow'
p2992
I1
sS'rXldej'
p2993
I1
sS'volunteers'
p2994
I1
sS'applicant.'
p2995
I1
sS'Raise'
p2996
I1
sS'Zlotowski.'
p2997
I1
sS'lO'
p2998
I1
sS'xycHg'
p2999
I1
sS'move'
p3000
I1
sS"Forces'"
p3001
I1
sS'report'
p3002
I3
sS'Holidays.'
p3003
I1
sS'Organization'
p3004
I1
sS'Hermann'
p3005
I1
sS'design,'
p3006
I1
sS'tutor'
p3007
I8
sS'Scientific'
p3008
I2
sS'Secretariat'
p3009
I28
sS'chosen'
p3010
I5
sS'Hacohen,'
p3011
I3
sS'important.'
p3012
I3
sS'Logistics,'
p3013
I1
sS'Director'
p3014
I10
sS'thieves'
p3015
I1
sS'degrees'
p3016
I8
sS'lp'
p3017
I1
sS'Bazaar'
p3018
I1
sS'2011'
p3019
I8
sS'2010'
p3020
I1
sS'attachment'
p3021
I26
sS'dad'
p3022
I2
sS'docx'
p3023
I8
sS'mechanisms'
p3024
I1
sS'dab'
p3025
I2
sS'docs'
p3026
I2
sS'outlined'
p3027
I2
sS'Register'
p3028
I3
sS'['
p3029
I1
sS'Ainb'
p3030
I1
sS'mention'
p3031
I2
sS'LPM'
p3032
I1
sS'cutting'
p3033
I1
sS'bGUtdHlwZTpl'
p3034
I1
sS'Social'
p3035
I10
sS'say'
p3036
I2
sS'Works'
p3037
I4
sS'day'
p3038
I48
sS'Karina'
p3039
I1
sS'applicants'
p3040
I3
sS'personally'
p3041
I9
sS'degree.'
p3042
I5
sS'campuses'
p3043
I14
sS'degree,'
p3044
I5
sS'ffbc'
p3045
I1
sS'eb00'
p3046
I2
sS'dGVybmFsY'
p3047
I3
sS'aecbb'
p3048
I2
sS'YdRdwe'
p3049
I1
sS'Talmi'
p3050
I5
sS'accompanied'
p3051
I7
sS'glasses'
p3052
I3
sS'nXm'
p3053
I1
sS'receipt.'
p3054
I2
sS'activate'
p3055
I2
sS'From'
p3056
I12
sS'Network'
p3057
I1
sS'doing'
p3058
I1
sS'dreaming'
p3059
I2
sS'bdbf'
p3060
I2
sS'society'
p3061
I4
sS'Bonuses'
p3062
I1
sS'books'
p3063
I2
sS'static'
p3064
I1
sS'sweatshirt'
p3065
I1
sS'programmes'
p3066
I1
sS'following:'
p3067
I1
sS"'"
p3068
I5
sS'Very'
p3069
I1
sS'announces'
p3070
I1
sS'defend'
p3071
I1
sS'bab'
p3072
I2
sS'postpone'
p3073
I1
sS'Change'
p3074
I66
sS'ref'
p3075
I3
sS'reg'
p3076
I2
sS'math'
p3077
I2
sS'Dhana'
p3078
I1
sS'model'
p3079
I1
sS'Friedman,'
p3080
I1
sS'kidneys?'
p3081
I1
sS'interactions'
p3082
I1
sS'book.'
p3083
I1
sS'clarify'
p3084
I3
sS'early'
p3085
I5
sS'Meet'
p3086
I5
sS'shortest'
p3087
I2
sS'Outlook'
p3088
I3
sS'DQo'
p3089
I6
sS'things,'
p3090
I3
sS'Point'
p3091
I2
sS'Grade'
p3092
I1
sS'explanations'
p3093
I2
sS'Shlichim'
p3094
I1
sS'Jump'
p3095
I12
sS'ymirsky'
p3096
I1
sS'length'
p3097
I1
sS'Guidlines'
p3098
I1
sS'f000ac'
p3099
I2
sS'Nahost'
p3100
I1
sS'south'
p3101
I3
sS'Developer'
p3102
I1
sS'Ceremony'
p3103
I5
sS'fda'
p3104
I2
sS'Scholarships'
p3105
I17
sS'ethical'
p3106
I1
sS'third'
p3107
I6
sS'hlbWFzLW'
p3108
I1
sS'hachvana'
p3109
I3
sS'economy.'
p3110
I3
sS'strategic'
p3111
I12
sS'Program'
p3112
I15
sS'weak'
p3113
I1
sS'reached'
p3114
I2
sS'aGVhZD'
p3115
I1
sS'TASK.'
p3116
I1
sS'District'
p3117
I2
sS'0bd'
p3118
I4
sS'ordering'
p3119
I1
sS'hbCwgZGl'
p3120
I1
sS'Lilach'
p3121
I2
sS'system'
p3122
I32
sS'Association'
p3123
I8
sS'evacuated'
p3124
I2
sS'lot'
p3125
I4
sS'Yerushalayim'
p3126
I1
sS'lmIGd0ZSBtc'
p3127
I2
sS'acquire'
p3128
I1
sS'Xls'
p3129
I1
sS'Scholarship.'
p3130
I1
sS'scan,'
p3131
I1
sS'Priority'
p3132
I1
sS'colleagues'
p3133
I9
sS'Assaf'
p3134
I1
sS'supervisors.'
p3135
I1
sS'bother'
p3136
I1
sS'deanbgu'
p3137
I10
sS'compensation'
p3138
I1
sS'Drawings'
p3139
I2
sS'Eran'
p3140
I4
sS'collecting'
p3141
I2
sS'Clalit'
p3142
I1
sS'Chumusia'
p3143
I1
sS'partnership'
p3144
I1
sS'Machine'
p3145
I2
sS'Workshop'
p3146
I45
sS'have'
p3147
I164
sS'dbfd'
p3148
I2
sS'scanned.'
p3149
I2
sS'apparently'
p3150
I1
sS'clearly'
p3151
I1
sS'Activities'
p3152
I1
sS'documents'
p3153
I1175
sS'min'
p3154
I1
sS'studying'
p3155
I16
sS'VFIvUkVDLWh0bWw0MCI'
p3156
I1
sS'mid'
p3157
I2
sS'Particular'
p3158
I1
sS'mille'
p3159
I2
sS'subject'
p3160
I25
sS'oCT'
p3161
I1
sS'accuracy'
p3162
I2
sS'unless'
p3163
I3
sS'Weinstein'
p3164
I1
sS'basis,'
p3165
I1
sS'disappointments'
p3166
I1
sS'basis.'
p3167
I1
sS'Without'
p3168
I2
sS'eight'
p3169
I2
sS'Advertising'
p3170
I1
sS'PLaRU'
p3171
I1
sS'device'
p3172
I3
sS'capacity'
p3173
I1
sS'payment'
p3174
I16
sS'hatred,'
p3175
I1
sS'death'
p3176
I1
sS'black'
p3177
I3
sS'placement'
p3178
I2
sS'enthusiastic'
p3179
I1
sS'inappropriate'
p3180
I1
sS'request'
p3181
I22
sS'1,000'
p3182
I1
sS'Eligibility'
p3183
I2
sS'Undergraduate'
p3184
I7
sS'bXkNeqOiBiZ'
p3185
I1
sS'mechanical'
p3186
I5
sS'occasion'
p3187
I1
sS'Saturday'
p3188
I13
sS'document.'
p3189
I1
sS'Vassallo'
p3190
I2
sS'area,'
p3191
I2
sS'Kaufman,'
p3192
I1
sS'atmosphere'
p3193
I1
sS'recess'
p3194
I1
sS'dba'
p3195
I4
sS'text'
p3196
I1
sS'FOHS'
p3197
I2
sS'Invitation'
p3198
I2
sS'terminate'
p3199
I1
sS'dbd'
p3200
I2
sS'bring'
p3201
I1
sS'Under'
p3202
I5
sS'Computerization,'
p3203
I1
sS'Shrink'
p3204
I1
sS'decade'
p3205
I1
sS'principal'
p3206
I1
sS'eda'
p3207
I3
sS'ae0'
p3208
I2
sS'0NCnAuY'
p3209
I1
sS'knowledge'
p3210
I13
sS'JhdGlvbjp'
p3211
I1
sS'Update'
p3212
I27
sS'should'
p3213
I28
sS'R0b'
p3214
I1
sS'Thursday.'
p3215
I1
sS'molecules'
p3216
I1
sS'printers'
p3217
I1
sS'Jacob'
p3218
I6
sS'committee.'
p3219
I1
sS'Strong'
p3220
I1
sS'hope'
p3221
I7
sS'Amplify'
p3222
I2
sS'meant'
p3223
I1
sS'Owners'
p3224
I1
sS'demobilized'
p3225
I1
sS'handle'
p3226
I1
sS'Decide'
p3227
I1
sS'means'
p3228
I4
sS'Whether'
p3229
I1
sS'familiar'
p3230
I1
sS'readable.'
p3231
I1
sS'kit,'
p3232
I1
sS'kit.'
p3233
I3
sS'Keep'
p3234
I1
sS"Calvinu's"
p3235
I1
sS'zXlSDXoteb'
p3236
I1
sS'Mechanical'
p3237
I2
sS'timing'
p3238
I1
sS'jXmdedINeg'
p3239
I1
sS'Once'
p3240
I2
sS'symbols'
p3241
I4
sS'Because'
p3242
I1
sS'committees'
p3243
I1
sS'unauthorized'
p3244
I4
sS'Thursdays'
p3245
I2
sS'h'
p3246
I13
sS'Shalom'
p3247
I27
sS'Zlotovsky'
p3248
I2
sS'calling'
p3249
I1
sS'aea'
p3250
I2
sS'aeb'
p3251
I2
sS'0,'
p3252
I14
sS'aef'
p3253
I3
sS'fixed'
p3254
I1
sS'withstand'
p3255
I1
sS'temporarily'
p3256
I1
sS'constructing'
p3257
I1
sS'accepted'
p3258
I11
sS'Area'
p3259
I1
sS'publications.'
p3260
I1
sS'Guidance'
p3261
I23
sS'Wikipedia'
p3262
I1
sS'Commitment'
p3263
I2
sS'Adoption'
p3264
I1
sS'Pensioners'
p3265
I1
sS'once.'
p3266
I2
sS'advance'
p3267
I9
sS'Paula'
p3268
I3
sS'bbaa'
p3269
I2
sS'couples.'
p3270
I1
sS'Engineers,'
p3271
I2
sS'reform'
p3272
I1
sS"master's"
p3273
I3
sS'Shmilowitz,'
p3274
I1
sS'PC'
p3275
I5
sS'difficulties'
p3276
I1
sS'Mentoring'
p3277
I1
sS'routine'
p3278
I4
sS'progress'
p3279
I4
sS'July'
p3280
I80
sS'email'
p3281
I73
sS'jaffainst'
p3282
I1
sS'PM'
p3283
I1
sS'ends'
p3284
I3
sS'various'
p3285
I20
sS'Greetings:'
p3286
I1
sS'forgiveness,'
p3287
I1
sS'Forum'
p3288
I29
sS'Developing'
p3289
I1
sS'predictive'
p3290
I2
sS'shifts.'
p3291
I1
sS'Study'
p3292
I5
sS'co-existence'
p3293
I1
sS'Greetings,'
p3294
I3
sS'traffic'
p3295
I2
sS'Smoke'
p3296
I1
sS'dept.'
p3297
I1
sS'optional'
p3298
I1
sS'restrictions'
p3299
I1
sS'dates.'
p3300
I1
sS'Emergency'
p3301
I27
sS'invited'
p3302
I68
sS'Ethiopian'
p3303
I1
sS'equal'
p3304
I1
sS'harvard'
p3305
I2
sS'Design'
p3306
I2
sS'Self-help'
p3307
I2
sS'Candle'
p3308
I3
sS'passing'
p3309
I6
sS'Campus'
p3310
I12
sS'Forgive'
p3311
I1
sS'renovations.'
p3312
I2
sS'detailed'
p3313
I5
sS'relevant'
p3314
I23
sS'co'
p3315
I120
sS'cn'
p3316
I1
sS'cm'
p3317
I1
sS'cbc'
p3318
I2
sS'cc'
p3319
I48
sS'cb'
p3320
I19
sS'ca'
p3321
I30
sS'cf'
p3322
I13
sS'ce'
p3323
I41
sS'cd'
p3324
I21
sS'year-on'
p3325
I1
sS'ceea'
p3326
I1
sS'news'
p3327
I5
sS'cs'
p3328
I3
sS'cbf'
p3329
I1
sS'allocated'
p3330
I2
sS'Holiday'
p3331
I1
sS'undergraduate'
p3332
I17
sS'Mosnbrg'
p3333
I1
sS'citizenship'
p3334
I5
sS'dac0bd'
p3335
I2
sS'deliberation'
p3336
I1
sS'Get'
p3337
I5
sS"it's"
p3338
I2
sS'af'
p3339
I13
sS'copies'
p3340
I4
sS'apologize'
p3341
I5
sS'Phone'
p3342
I61
sS'lu'
p3343
I1
sS'QuLi'
p3344
I1
sS'copied'
p3345
I1
sS'define'
p3346
I2
sS'Closure'
p3347
I1
sS'Center'
p3348
I215
sS'CEO'
p3349
I2
sS'Horest'
p3350
I2
sS'Nations'
p3351
I1
sS'finished'
p3352
I1
sS'Space'
p3353
I2
sS'LinkedIn'
p3354
I2
sS'Professional'
p3355
I3
sS'c0'
p3356
I16
sS'volunteer'
p3357
I8
sS'continues,'
p3358
I1
sS'holiday'
p3359
I4
sS'welcoming'
p3360
I3
sS'sorekay'
p3361
I2
sS'nd'
p3362
I1
sS'Number'
p3363
I5
sS'value'
p3364
I5
sS'General'
p3365
I17
sS'memorizing'
p3366
I1
sS'enterprises'
p3367
I1
sS'Seniority'
p3368
I1
sS'Questionnaire'
p3369
I1
sS'ly'
p3370
I1
sS'0x'
p3371
I1
sS'studies,'
p3372
I7
sS'Salary'
p3373
I2
sS'vc'
p3374
I2
sS'NjaGVtYXMubWlj'
p3375
I1
sS'almost'
p3376
I2
sS'vi'
p3377
I1
sS'student,'
p3378
I1
sS'site'
p3379
I166
sS'mZmljZSIgeG'
p3380
I1
sS'Uniform'
p3381
I1
sS'vp'
p3382
I1
sS'arrangements'
p3383
I3
sS'vu'
p3384
I2
sS'tenor'
p3385
I3
sS'partner'
p3386
I4
sS'sits'
p3387
I1
sS'0b'
p3388
I19
sS'Altal.'
p3389
I1
sS'administration'
p3390
I5
sS'fabe'
p3391
I1
sS'vQ'
p3392
I1
sS'cope'
p3393
I5
sS'Regular'
p3394
I11
sS'digital'
p3395
I1
sS'demarcation'
p3396
I2
sS'vX'
p3397
I1
sS'DQoJY'
p3398
I3
sS'Loans'
p3399
I1
sS'pbHk'
p3400
I1
sS'Marcus'
p3401
I6
sS'Anat'
p3402
I31
sS'practice'
p3403
I29
sS'Merav'
p3404
I3
sS'igv'
p3405
I1
sS'Medical'
p3406
I2
sS'Conducts'
p3407
I1
sS'upon'
p3408
I12
sS'Prepare'
p3409
I4
sS'paving'
p3410
I2
sS'sisters'
p3411
I1
sS'dayam'
p3412
I1
sS'php'
p3413
I1480
sS'judgment'
p3414
I2
sS'Roundtrips'
p3415
I1
sS'expand'
p3416
I4
sS'aefd'
p3417
I3
sS'dec0ec'
p3418
I2
sS'PLRU'
p3419
I1
sS'off'
p3420
I1
sS'center'
p3421
I28
sS'Senate'
p3422
I1
sS'restricted'
p3423
I1
sS'website:'
p3424
I5
sS'Julia'
p3425
I1
sS'directly.'
p3426
I1
sS'Challenges'
p3427
I1
sS'patterns'
p3428
I2
sS'command'
p3429
I6
sS'Violin'
p3430
I1
sS'Sderot'
p3431
I3
sS'Ttached'
p3432
I2
sS'Matching'
p3433
I1
sS'latest'
p3434
I7
sS'Tisha'
p3435
I2
sS'Up'
p3436
I3
sS'XXpNeo'
p3437
I1
sS'teacher'
p3438
I2
sS'less'
p3439
I7
sS'tokenizing'
p3440
I2
sS'Orli'
p3441
I1
sS'cafce'
p3442
I2
sS'Access'
p3443
I3
sS'satellites'
p3444
I2
sS'stored'
p3445
I2
sS'rooms'
p3446
I1
sS'Fourth'
p3447
I2
sS'impaired'
p3448
I5
sS'Defibrillators'
p3449
I1
sS'protecting'
p3450
I1
sS'Joya'
p3451
I6
sS'dcdea'
p3452
I2
sS'flashlight'
p3453
I1
sS'web'
p3454
I2
sS'gongs'
p3455
I1
sS'work,'
p3456
I1
sS'raised.'
p3457
I3
sS'Advantage'
p3458
I8
sS'Company'
p3459
I20
sS'Friday'
p3460
I6
sS'details,'
p3461
I7
sS'Liran'
p3462
I1
sS'add'
p3463
I71
sS'website.'
p3464
I16
sS'combine'
p3465
I1
sS'adc'
p3466
I2
sS'exempt'
p3467
I1
sS'dced'
p3468
I3
sS'dcef'
p3469
I2
sS'fcd'
p3470
I5
sS'Adar.'
p3471
I1
sS'tests'
p3472
I26
sS'Corps,'
p3473
I1
sS'increased'
p3474
I3
sS'economy,'
p3475
I2
sS'government'
p3476
I6
sS'dest'
p3477
I2
sS'viplus'
p3478
I8
sS'five'
p3479
I4
sS'moment.'
p3480
I1
sS'supervise'
p3481
I1
sS'integration,'
p3482
I1
sS'Fallen'
p3483
I4
sS'string'
p3484
I5
sS'rPSJwdXJwbGUiPg0KPGRpdiBjbGFz'
p3485
I1
sS'Disassembly'
p3486
I1
sS'Moshal'
p3487
I1
sS'like'
p3488
I37
sS'Schwartz'
p3489
I16
sS'Profession'
p3490
I1
sS'Self-registration'
p3491
I2
sS'ad.'
p3492
I2
sS'become'
p3493
I4
sS'jenyr'
p3494
I1
sS'"Next'
p3495
I1
sS'Pro'
p3496
I1
sS'Beersheba.'
p3497
I1
sS'amendment'
p3498
I1
sS'Ability'
p3499
I6
sS'Documents'
p3500
I35
sS'stress.'
p3501
I2
sS'stress,'
p3502
I1
sS'date,'
p3503
I2
sS'Interact'
p3504
I1
sS'xycHgsIGxpLmNscnB'
p3505
I1
sS'authority'
p3506
I1
sS'Matan'
p3507
I1
sS'convey'
p3508
I1
sS'recommendation'
p3509
I2
sS'proper'
p3510
I3
sS"school's"
p3511
I1
sS'Feldstein'
p3512
I1
sS'hours,'
p3513
I1
sS'recognition'
p3514
I3
sS'rainy,'
p3515
I1
sS'happens'
p3516
I1
sS'Option'
p3517
I27
sS'avoid'
p3518
I3
sS'separate'
p3519
I3
sS'bWxucz0iaHR0cDovL'
p3520
I1
sS'salaries'
p3521
I2
sS'disk'
p3522
I2
sS'students'
p3523
I440
sS'XXldefINeo'
p3524
I1
sS'does'
p3525
I12
sS'discretion'
p3526
I2
sS'assuming'
p3527
I1
sS'Gal,'
p3528
I5
sS'board,'
p3529
I1
sS'Naamat'
p3530
I2
sS'conference'
p3531
I8
sS'biology'
p3532
I1
sS'schedule'
p3533
I4
sS'dce'
p3534
I2
sS'dcb'
p3535
I3
sS'Robot'
p3536
I1
sS'dca'
p3537
I5
sS'pressure'
p3538
I11
sS'host'
p3539
I3
sS'Authority,'
p3540
I1
sS'Deterioration'
p3541
I1
sS'r'
p3542
I8
sS'loans'
p3543
I7
sS'stage'
p3544
I4
sS'sister'
p3545
I1
sS'actual'
p3546
I7
sS'December'
p3547
I2
sS'happen?'
p3548
I1
sS'foretold'
p3549
I1
sS'blessings'
p3550
I1
sS'Questions'
p3551
I69
sS'Socioeconomic'
p3552
I1
sS'Previous'
p3553
I2
sS'Mayor'
p3554
I1
sS'software'
p3555
I33
sS'cadet'
p3556
I2
sS'itself.'
p3557
I1
sS'Segev'
p3558
I2
sS'boundaries'
p3559
I1
sS'submits'
p3560
I1
sS'commitment'
p3561
I6
sS'kobig'
p3562
I2
sS'guard'
p3563
I1
sS'SquareMacro'
p3564
I5
sS'national'
p3565
I5
sS'Pajar'
p3566
I1
sS'Preferences'
p3567
I6
sS'Reercenterbgu'
p3568
I1
sS'gotowebinar'
p3569
I1
sS'rushed'
p3570
I1
sS'eqINeX'
p3571
I1
sS'engineering.'
p3572
I7
sS'TMS.'
p3573
I1
sS'engineering,'
p3574
I4
sS'awarded'
p3575
I4
sS'Armor'
p3576
I2
sS'jXmdedLA0K'
p3577
I1
sS'place.'
p3578
I2
sS'Exact'
p3579
I1
sS'function'
p3580
I11
sS'Ben-Aharon'
p3581
I2
sS'bus'
p3582
I1
sS'brand'
p3583
I1
sS'Experimental'
p3584
I3
sS'overlapping'
p3585
I1
sS'delivery'
p3586
I7
sS'reminds'
p3587
I5
sS'repeated'
p3588
I1
sS'construction'
p3589
I6
sS'Re'
p3590
I3
sS'Succot'
p3591
I1
sS'children.'
p3592
I2
sS'candidacy'
p3593
I4
sS'students,'
p3594
I21
sS'places'
p3595
I32
sS'students.'
p3596
I12
sS'wish'
p3597
I23
sS'official'
p3598
I3
sS'Diane'
p3599
I1
sS'reinforcement'
p3600
I2
sS'placed'
p3601
I2
sS'invest'
p3602
I2
sS'afee'
p3603
I2
sS'problem'
p3604
I9
sS'minutes'
p3605
I1
sS'Insurance'
p3606
I1
sS'Sqlink'
p3607
I2
sS'instead'
p3608
I9
sS'Executive'
p3609
I3
sS'self-presentation.'
p3610
I2
sS'handset'
p3611
I1
sS'contribute'
p3612
I3
sS'Instrument'
p3613
I1
sS'our'
p3614
I47
sS'bGUtcHJp'
p3615
I1
sS'programmer'
p3616
I2
sS'lobby.'
p3617
I3
sS'Moderator'
p3618
I6
sS'renowned'
p3619
I1
sS'compared'
p3620
I1
sS'torch'
p3621
I3
sS'questionnaire.'
p3622
I1
sS'areas.'
p3623
I1
sS'variety'
p3624
I21
sS'Elsc'
p3625
I1
sS'fired,'
p3626
I1
sS'f00a'
p3627
I2
sS'oak'
p3628
I1
sS'detail'
p3629
I2
sS'virtual'
p3630
I7
sS'aggravation.'
p3631
I1
sS'4,'
p3632
I2
sS'details'
p3633
I99
sS'mathematics,'
p3634
I1
sS'bbfbf'
p3635
I3
sS'u'
p3636
I15
sS'eabf'
p3637
I2
sS'February'
p3638
I2
sS'repeat'
p3639
I1
sS'Lost'
p3640
I1
sS'Psychserv'
p3641
I1
sS'Year'
p3642
I10
sS'Mentors'
p3643
I3
sS'sites.'
p3644
I1
sS'April'
p3645
I20
sS'in.'
p3646
I2
sS'matriculation'
p3647
I7
sS'U'
p3648
I1
sS'0Form'
p3649
I1
sS'Page'
p3650
I10
sS'South'
p3651
I6
sS'exposure'
p3652
I7
sS'searches'
p3653
I1
sS'Zolotovsky'
p3654
I8
sS'detail.'
p3655
I1
sS'processed'
p3656
I2
sS'Private'
p3657
I2
sS'nXmdeVID'
p3658
I1
sS'armor'
p3659
I2
sS'XJXcLMUpRDlb'
p3660
I1
sS'compete'
p3661
I1
sS'pension'
p3662
I1
sS'biotechnology'
p3663
I1
sS'8th'
p3664
I1
sS'officer,'
p3665
I1
sS'searchable'
p3666
I1
sS'Agile'
p3667
I1
sS'magnetic'
p3668
I1
sS'WorldQuant'
p3669
I10
sS'nanGbp'
p3670
I12
sS'sleep'
p3671
I1
sS'nwm'
p3672
I50
sS'integrity'
p3673
I1
sS'forget'
p3674
I2
sS'ecdd'
p3675
I5
sS'c0a'
p3676
I3
sS'periodicals'
p3677
I1
sS'c0e'
p3678
I4
sS'c0f'
p3679
I2
sS"WorldQuant's"
p3680
I2
sS'bike'
p3681
I1
sS'voted'
p3682
I1
sS'rabbinate'
p3683
I1
sS'nine-semester'
p3684
I1
sS'Secretary'
p3685
I3
sS'worth'
p3686
I3
sS'road'
p3687
I1
sS'risk'
p3688
I1
sS'Iranian'
p3689
I2
sS'Industry'
p3690
I4
sS'fcef'
p3691
I2
sS'assembler'
p3692
I1
sS'every'
p3693
I13
sS'jack'
p3694
I1
sS'lecture'
p3695
I33
sS'Military'
p3696
I1
sS'GM'
p3697
I1
sS'00:00'
p3698
I157
sS'Mentor'
p3699
I6
sS'tickets'
p3700
I2
sS'Gu'
p3701
I3
sS'Unique'
p3702
I1
sS'administrating'
p3703
I1
sS'Presence'
p3704
I1
sS'problems,'
p3705
I1
sS'Independence'
p3706
I5
sS'problems.'
p3707
I1
sS'upload'
p3708
I1
sS'faed'
p3709
I2
sS'red'
p3710
I2
sS'guiding'
p3711
I3
sS'c00'
p3712
I2
sS'Parents'
p3713
I2
sS'grade.'
p3714
I1
sS'Hess'
p3715
I1
sS'enjoy'
p3716
I1
sS'Bayside'
p3717
I2
sS'bicycle'
p3718
I2
sS'Hever'
p3719
I1
sS'Festival'
p3720
I1
sS'phones'
p3721
I11
sS'consistent'
p3722
I2
sS'SID'
p3723
I1
sS'direct'
p3724
I1
sS'VP'
p3725
I1
sS'Kiryat'
p3726
I5
sS'stressed,'
p3727
I1
sS'stressed.'
p3728
I4
sS'n'
p3729
I4
sS'machines'
p3730
I1
sS'Available'
p3731
I1
sS'established'
p3732
I2
sS'V0PjwveG'
p3733
I1
sS'dictionary'
p3734
I1
sS'decisions'
p3735
I7
sS'selected'
p3736
I6
sS'Mules,'
p3737
I1
sS'Visual'
p3738
I3
sS'shoham'
p3739
I2
sS'MiAyIDIgNCAzIDIgNDt'
p3740
I1
sS'above'
p3741
I17
sS'conduct'
p3742
I3
sS'general,'
p3743
I1
sS'noga'
p3744
I2
sS'ZL'
p3745
I1
sS'Dormitories'
p3746
I1
sS'responsiveness'
p3747
I1
sS'interns'
p3748
I3
sS'brigav'
p3749
I1
sS'Bareket'
p3750
I3
sS'pdGlvbnMg'
p3751
I1
sS'phone.'
p3752
I7
sS'Follow'
p3753
I5
sS'path'
p3754
I6
sS'establishment'
p3755
I1
sS'ZS'
p3756
I1
sS'obtained'
p3757
I7
sS'Zm'
p3758
I1
sS'fQ0KYTpsaW'
p3759
I1
sS'daughter'
p3760
I1
sS'forum'
p3761
I457
sS'Tuesday'
p3762
I46
sS'changed'
p3763
I1
sS'completely'
p3764
I1
sS'Delali'
p3765
I1
sS'Rendering'
p3766
I2
sS'mentor'
p3767
I3
sS'Home'
p3768
I52
sS'postponed'
p3769
I1
sS'changes'
p3770
I15
sS'mutual'
p3771
I2
sS'Laboratories'
p3772
I4
sS'Group'
p3773
I20
sS'secure'
p3774
I17
sS'Giving'
p3775
I1
sS'Studying'
p3776
I1
sS'Support'
p3777
I7
sS'highly'
p3778
I3
sS'patience'
p3779
I1
sS'0f0a'
p3780
I2
sS'Health'
p3781
I6
sS'socioeconomic'
p3782
I2
sS'salary,'
p3783
I1
sS'actions'
p3784
I1
sS'salary.'
p3785
I1
sS'nursing,'
p3786
I1
sS'Sommerfeld'
p3787
I2
sS'WebRTC'
p3788
I2
sS'would'
p3789
I37
sS'Sorek'
p3790
I2
sS'Forming'
p3791
I1
sS'canceled.'
p3792
I1
sS'negative'
p3793
I4
sS'xycHgNCgl'
p3794
I1
sS'cancellation,'
p3795
I1
sS'noting'
p3796
I1
sS'CSS'
p3797
I1
sS'year-long'
p3798
I1
sS'assessment'
p3799
I5
sS'renovations'
p3800
I1
sS'cae0e'
p3801
I2
sS'courses,'
p3802
I1
sS'forum.'
p3803
I1
sS'Berluson'
p3804
I1
sS'diknat'
p3805
I2
sS'award'
p3806
I2
sS'employees,'
p3807
I2
sS'phone'
p3808
I33
sS'interaction'
p3809
I1
sS'forum:'
p3810
I5
sS'bfddca'
p3811
I2
sS'excellent'
p3812
I7
sS'must'
p3813
I63
sS'me'
p3814
I17
sS'Signing'
p3815
I1
sS'Hagai'
p3816
I1
sS'word'
p3817
I2
sS'top.'
p3818
I1
sS'books,'
p3819
I2
sS'Psychometric'
p3820
I1
sS'books.'
p3821
I1
sS'work'
p3822
I128
sS'show'
p3823
I4
sS'ORS'
p3824
I4
sS'House,'
p3825
I2
sS'ZGVudD'
p3826
I1
sS'install'
p3827
I1
sS'already'
p3828
I17
sS'Candidates'
p3829
I2
sS'"Cadets'
p3830
I1
sS'my'
p3831
I1
sS'Abc'
p3832
I1
sS'activities'
p3833
I45
sS'JavaScript'
p3834
I1
sS'Virtual'
p3835
I2
sS'Goni'
p3836
I1
sS'LmNvLmlsDQrXlNee'
p3837
I1
sS'ad0dffbbc'
p3838
I3
sS'aaae'
p3839
I2
sS'phpBB'
p3840
I1
sS'scheduling'
p3841
I2
sS'Lord'
p3842
I2
sS'keep'
p3843
I2
sS'HXqdeZ'
p3844
I1
sS'expression,'
p3845
I1
sS'ceremony'
p3846
I44
sS'ones'
p3847
I2
sS'end'
p3848
I56
sS'Doodlebug'
p3849
I1
sS'provide'
p3850
I10
sS'mouse'
p3851
I6
sS'Autodidactic'
p3852
I1
sS'Applicants'
p3853
I5
sS'Psychologist'
p3854
I1
sS'adjacent'
p3855
I4
sS'interview'
p3856
I11
sS'Municipality'
p3857
I1
sS'Eilat'
p3858
I1
sS'Maccabi'
p3859
I2
sS'Vehicles'
p3860
I2
sS'assistance.'
p3861
I4
sS'after'
p3862
I32
sS'lab'
p3863
I12
sS'Will'
p3864
I6
sS'befor'
p3865
I1
sS'iZ'
p3866
I1
sS'Excellence'
p3867
I3
sS'Weiner'
p3868
I1
sS'law'
p3869
I1
sS'meaningful'
p3870
I5
sS'parallel'
p3871
I8
sS'Deanbgu'
p3872
I1
sS'respect.'
p3873
I1
sS'appreciate'
p3874
I1
sS'hypotheses'
p3875
I1
sS'e-commerce'
p3876
I2
sS'Classes'
p3877
I1
sS'upside'
p3878
I1
sS'aa0dfd'
p3879
I2
sS'enter'
p3880
I14
sS'order'
p3881
I24
sS'parsing'
p3882
I4
sS'internalization'
p3883
I1
sS'office'
p3884
I17
sS'devote'
p3885
I1
sS"Master's"
p3886
I13
sS'Zevik'
p3887
I2
sS'Alternate'
p3888
I27
sS'choose'
p3889
I5
sS'saving,'
p3890
I4
sS'fab'
p3891
I2
sS'Hashanah'
p3892
I1
sS'thesis'
p3893
I1
sS'innovative'
p3894
I7
sS'ticket'
p3895
I3
sS'IzFGNDk'
p3896
I1
sS'Visually'
p3897
I1
sS'Http'
p3898
I23
sS'highlights'
p3899
I1
sS'Here'
p3900
I5
sS'writing'
p3901
I16
sS'ImJsdWUiIHZsaW'
p3902
I1
sS'production'
p3903
I2
sS'routine,'
p3904
I2
sS'routine.'
p3905
I1
sS'ZHRoOjEwMC'
p3906
I1
sS'Zolotsky'
p3907
I2
sS'then'
p3908
I9
sS'them'
p3909
I18
sS'Harshama'
p3910
I2
sS'affected'
p3911
I1
sS'Baruch,'
p3912
I1
sS'Administration'
p3913
I1
sS'safe'
p3914
I9
sS'UtMToyIDE'
p3915
I1
sS'Analysis'
p3916
I4
sS'break'
p3917
I3
sS'band'
p3918
I9
sS'month,'
p3919
I1
sS'Yariv'
p3920
I1
sS'NCkBmb'
p3921
I1
sS'they'
p3922
I12
sS'carefully.'
p3923
I1
sS'tourism'
p3924
I1
sS'Timeshare'
p3925
I1
sS'bank'
p3926
I2
sS'units.'
p3927
I1
sS'Control'
p3928
I1
sS'FudGVkLmNvLmlsL'
p3929
I1
sS'yZFNlY'
p3930
I1
sS'Bedouin'
p3931
I2
sS'Facebook,'
p3932
I1
sS'regularly'
p3933
I4
sS'classified'
p3934
I1
sS'leading'
p3935
I24
sS'Glasner'
p3936
I1
sS'chemistry,'
p3937
I1
sS'filling'
p3938
I2
sS'reasonable'
p3939
I3
sS'each'
p3940
I25
sS'Genomic'
p3941
I1
sS'Dor.'
p3942
I1
sS'perimeter'
p3943
I1
sS'Bat-Dor'
p3944
I1
sS'Rhine'
p3945
I2
sS'salaries.'
p3946
I1
sS'Mordechai'
p3947
I1
sS'Rhino'
p3948
I4
sS'Anyone'
p3949
I9
sS'Copying'
p3950
I1
sS'hosted'
p3951
I1
sS'Cdcaf'
p3952
I1
sS'Committee,'
p3953
I3
sS'Gianluigi'
p3954
I2
sS'weekly,'
p3955
I2
sS'weekly.'
p3956
I2
sS'network'
p3957
I10
sS'gog'
p3958
I1
sS'two-hour'
p3959
I1
sS'cddc'
p3960
I2
sS'fellows'
p3961
I1
sS'day.'
p3962
I4
sS'fellowship'
p3963
I1
sS'day,'
p3964
I2
sS'Exercise'
p3965
I7
sS'gov'
p3966
I7
sS'forth'
p3967
I2
sS'Tel:'
p3968
I4
sS'concluded'
p3969
I2
sS'Studied'
p3970
I1
sS'free'
p3971
I10
sS'standard'
p3972
I1
sS'appointments'
p3973
I1
sS'management'
p3974
I25
sS'ISEG'
p3975
I1
sS'ISEF'
p3976
I3
sS'W'
p3977
I2
sS'thermocouple'
p3978
I1
sS'Pdf'
p3979
I8
sS'ceremonies,'
p3980
I1
sS'Studies'
p3981
I4
sS'immigrated'
p3982
I1
sS'delight'
p3983
I1
sS'Via'
p3984
I1
sS'Supervisor'
p3985
I5
sS'ecea'
p3986
I2
sS'created'
p3987
I3
sS'September'
p3988
I4
sS'National'
p3989
I14
sS'correctness'
p3990
I1
sS'Torah'
p3991
I1
sS'priorities'
p3992
I1
sS'creates'
p3993
I1
sS'Vip'
p3994
I4
sS'Embassy'
p3995
I5
sS'smokers'
p3996
I1
sS"group's"
p3997
I2
sS'aca'
p3998
I2
sS'organize'
p3999
I1
sS'uYW'
p4000
I1
sS'Notification'
p4001
I1
sS'coding'
p4002
I7
sS'primary'
p4003
I1
sS'hearing'
p4004
I11
sS'groundbreaking'
p4005
I3
sS'Sir,'
p4006
I2
sS'another'
p4007
I6
sS'Participant'
p4008
I1
sS'electronic'
p4009
I4
sS'illustrate'
p4010
I1
sS'Tests'
p4011
I1
sS'daef'
p4012
I2
sS'their'
p4013
I62
sS'Academy'
p4014
I3
sS'top'
p4015
I4
sS'Eitan'
p4016
I13
sS'elevator'
p4017
I1
sS'Z0IFdvcmQgMTQgKGZpbHRlcmVkIG'
p4018
I1
sS'Simplify'
p4019
I6
sS'confirming'
p4020
I1
sS'rates'
p4021
I2
sS'Thajov'
p4022
I1
sS'Ig'
p4023
I1
sS'percentage'
p4024
I2
sS'facilitated'
p4025
I1
sS'Skjo'
p4026
I1
sS'mentioning'
p4027
I1
sS'Search'
p4028
I2
sS'B'
p4029
I23
sS'jXldeqINeU'
p4030
I1
sS'Gates'
p4031
I7
sS'tool'
p4032
I2
sS'Logitech'
p4033
I1
sS'sciences.'
p4034
I2
sS'took'
p4035
I3
sS'formulate'
p4036
I1
sS'Preparation'
p4037
I1
sS'widgets'
p4038
I1
sS'Benefit'
p4039
I4
sS'Edge'
p4040
I5
sS'included.'
p4041
I1
sS'Lauder'
p4042
I97
sS'kept'
p4043
I1
sS'appeal.'
p4044
I1
sS'to:'
p4045
I11
sS'Abukasis'
p4046
I1
sS'Yitzhak'
p4047
I7
sS'roles'
p4048
I6
sS'Assembleer'
p4049
I1
sS'Trackbacks'
p4050
I1
sS'Advisors'
p4051
I1
sS'strategies'
p4052
I3
sS'See'
p4053
I13
sS'Sed'
p4054
I1
sS'successfully.'
p4055
I2
sS'hacking'
p4056
I1
sS'scans'
p4057
I1
sS'Galaxy'
p4058
I1
sS'bridge'
p4059
I1
sS'exercise.'
p4060
I2
sS'access.'
p4061
I2
sS'over,'
p4062
I1
sS'Elkabetz'
p4063
I2
sS'return'
p4064
I39
sS'Refbacks'
p4065
I1
sS'rar'
p4066
I1
sS'further'
p4067
I18
sS'participants.'
p4068
I1
sS'sPjwhW'
p4069
I1
sS'contents'
p4070
I1
sS'livnon'
p4071
I1
sS'forced'
p4072
I2
sS'Staying'
p4073
I1
sS'Shavuot'
p4074
I4
sS'Institute,'
p4075
I1
sS'comcareercenterbgu'
p4076
I1
sS'convenient'
p4077
I3
sS'Http://www.tfi.org.il/tfi/tf/tfi.org/tfi'
p4078
I1
sS'isolated'
p4079
I1
sS'oriented'
p4080
I4
sS'localities'
p4081
I3
sS'subjects'
p4082
I13
sS'9th,'
p4083
I4
sS'world.'
p4084
I6
sS'effectiveness'
p4085
I2
sS'completed'
p4086
I4
sS'NCjxvOmlkbWFwIHY'
p4087
I1
sS'circles'
p4088
I2
sS'lNep'
p4089
I1
sS"candidate's"
p4090
I1
sS'Computers'
p4091
I3
sS'abc'
p4092
I5
sS'Qg'
p4093
I2
sS'scripts'
p4094
I2
sS'exercises'
p4095
I53
sS'DADDADADDADDD'
p4096
I1
sS'Bookkeeping'
p4097
I1
sS'Vision'
p4098
I2
sS'Luck'
p4099
I1
sS'"Fourth'
p4100
I1
sS'paradigm'
p4101
I1
sS'treats'
p4102
I2
sS'neighborhoods'
p4103
I1
sS'characterizes'
p4104
I2
sS'Intel,'
p4105
I1
sS'shcohen'
p4106
I1
sS'alumni'
p4107
I1
sS'subject.'
p4108
I1
sS'orange-colored'
p4109
I1
sS'QA'
p4110
I3
sS'Table'
p4111
I2
sS'regards'
p4112
I2
sS'Election'
p4113
I1
sS'Want'
p4114
I4
sS'enterprise'
p4115
I1
sS'registrants'
p4116
I1
sS'reserve'
p4117
I27
sS'orlih'
p4118
I1
sS'office.'
p4119
I2
sS'Maccabim'
p4120
I2
sS'meal'
p4121
I5
sS'cdbb'
p4122
I2
sS'kalech'
p4123
I1
sS'anniversary'
p4124
I1
sS'lessons.'
p4125
I5
sS'solutions'
p4126
I4
sS'Yerocham'
p4127
I1
sS'value-oriented'
p4128
I2
sS'enjoyed'
p4129
I1
sS'd0'
p4130
I11
sS'ZmaWNlOm'
p4131
I1
sS'Beer-Sheva'
p4132
I7
sS'implementation'
p4133
I4
sS'Big'
p4134
I8
sS'guidance'
p4135
I7
sS'Bldg'
p4136
I2
sS'commence'
p4137
I1
sS'wzo'
p4138
I1
sS'screening'
p4139
I6
sS'announce'
p4140
I2
sS'dispatchers'
p4141
I1
sS'do'
p4142
I34
sS'dl'
p4143
I1
sS'Henoch'
p4144
I2
sS'sunglasses'
p4145
I1
sS'loved'
p4146
I2
sS'df'
p4147
I27
sS'companies,'
p4148
I1
sS'dd'
p4149
I29
sS'de'
p4150
I31
sS'db'
p4151
I31
sS'Sigambit'
p4152
I1
sS'da'
p4153
I17
sS'dy'
p4154
I1
sS'Quick'
p4155
I8
sS'KG'
p4156
I2
sS'UJA'
p4157
I1
sS'JPi'
p4158
I1
sS'mDWx'
p4159
I1
sS'countries'
p4160
I2
sS'dG'
p4161
I3
sS'dC'
p4162
I1
sS'fa00'
p4163
I1
sS"children's"
p4164
I5
sS'situation.'
p4165
I1
sS'situation,'
p4166
I2
sS'dW'
p4167
I1
sS'Bareket,'
p4168
I2
sS'secretary'
p4169
I5
sS'Tzur'
p4170
I3
sS'Branch'
p4171
I3
sS'Assigment'
p4172
I1
sS"Ma'agan"
p4173
I1
sS'Per'
p4174
I1
sS'resist'
p4175
I2
sS'checks'
p4176
I1
sS'depends'
p4177
I3
sS'submitted'
p4178
I39
sS'zb0'
p4179
I2
sS'bGUtcHJpb'
p4180
I2
sS'Reply'
p4181
I24
sS'Tzuk'
p4182
I14
sS'techniques'
p4183
I4
sS'draws'
p4184
I1
sS'request,'
p4185
I1
sS'introversion'
p4186
I1
sS'request.'
p4187
I2
sS'il.'
p4188
I2
sS"university's"
p4189
I3
sS'interviewing'
p4190
I1
sS'Registrars'
p4191
I1
sS'If'
p4192
I38
sS'bitahon@bgu.ac.il,Staff'
p4193
I1
sS'pluginfile'
p4194
I11
sS'cooperation'
p4195
I77
sS'hopefully'
p4196
I2
sS'motorscape'
p4197
I1
sS'Technologies'
p4198
I3
sS'previous'
p4199
I10
sS'encounters'
p4200
I1
sS'wg'
p4201
I1
sS'we'
p4202
I80
sS'terms'
p4203
I6
sS'institution'
p4204
I4
sS'Dikant'
p4205
I7
sS'Budgeting'
p4206
I1
sS'shifts,'
p4207
I1
sS'Absorption'
p4208
I6
sS'Dorit'
p4209
I6
sS'Hoh'
p4210
I1
sS'zby'
p4211
I2
sS'improve'
p4212
I6
sS'Nava'
p4213
I4
sS'received'
p4214
I19
sS'practitioner.'
p4215
I1
sS'psychologists'
p4216
I10
sS'Probability'
p4217
I1
sS'Dance'
p4218
I10
sS'ill'
p4219
I4
sS'Guidelines'
p4220
I4
sS'UNCgl'
p4221
I1
sS'participating'
p4222
I9
sS'players'
p4223
I1
sS'Brind'
p4224
I1
sS'Computer'
p4225
I32
sS'ilr'
p4226
I1
sS'Licensing'
p4227
I1
sS'receives'
p4228
I2
sS'LjAwMDFwdDsNCglmb'
p4229
I1
sS'exceeds'
p4230
I1
sS'threads'
p4231
I19
sS'requests'
p4232
I10
sS'expense'
p4233
I2
sS'com'
p4234
I85
sS'compressed'
p4235
I2
sS'year-end'
p4236
I1
sS'relaxation'
p4237
I2
sS'Gurion"'
p4238
I1
sS'directions'
p4239
I1
sS'impaired.'
p4240
I9
sS'Board'
p4241
I10
sS'Samples'
p4242
I1
sS'VuZGlmXS0tPg0KPC'
p4243
I1
sS'Dalia'
p4244
I24
sS'panel'
p4245
I1
sS'Maximal'
p4246
I2
sS'Soroka'
p4247
I2
sS'appears.'
p4248
I1
sS'Electronical'
p4249
I1
sS'aHR0cHM'
p4250
I1
sS'neutralize'
p4251
I1
sS'been'
p4252
I73
sS'quickly'
p4253
I2
sS'confident'
p4254
I1
sS'Giuliani,'
p4255
I1
sS'Aran'
p4256
I2
sS'Groups'
p4257
I1
sS'Shani,'
p4258
I1
sS'expected'
p4259
I4
sS'flexible'
p4260
I6
sS'Disabling'
p4261
I1
sS'duties'
p4262
I1
sS'Topology'
p4263
I2
sS'interviews.'
p4264
I2
sS'families'
p4265
I2
sS'Vice'
p4266
I6
sS'concerning'
p4267
I3
sS'apartments'
p4268
I1
sS'Unger'
p4269
I1
sS'catering'
p4270
I5
sS'dj0idXJuOnNjaGVtYXMtbWljcm'
p4271
I1
sS'grammings'
p4272
I1
sS'Jews'
p4273
I3
sS'applied'
p4274
I2
sS'Heinz'
p4275
I2
sS'Deputy'
p4276
I1
sS'room.'
p4277
I1
sS'Group,'
p4278
I2
sS'Manage'
p4279
I1
sS'Which'
p4280
I3
sS'INee'
p4281
I1
sS'aim'
p4282
I3
sS'udGVudD0idGV'
p4283
I1
sS'Feller'
p4284
I4
sS'teachers'
p4285
I5
sS'applies'
p4286
I3
sS'aid'
p4287
I3
sS'voice'
p4288
I2
sS'Heine'
p4289
I1
sS'hbe'
p4290
I2
sS'launched'
p4291
I2
sS'mistake'
p4292
I2
sS'professions'
p4293
I3
sS'Neta,'
p4294
I1
sS'Towards'
p4295
I1
sS'expenses'
p4296
I3
sS'Spokesman'
p4297
I2
sS'girls,'
p4298
I2
sS'LXkSDX'
p4299
I1
sS'LEARN'
p4300
I1
sS'MsEv'
p4301
I2
sS'HXldeT'
p4302
I1
sS'ab0'
p4303
I4
sS'containing'
p4304
I4
sS'Around'
p4305
I1
sS'perform'
p4306
I5
sS'suggest'
p4307
I2
sS'Stop'
p4308
I2
sS'CVs'
p4309
I8
sS'saving.'
p4310
I1
sS'complex'
p4311
I7
sS'Foerderprogram'
p4312
I1
sS'several'
p4313
I5
sS'breaks'
p4314
I1
sS'suitable.'
p4315
I1
sS'Classroom'
p4316
I1
sS'Distance'
p4317
I1
sS'Room'
p4318
I34
sS'""'
p4319
I1
sS'Institute'
p4320
I4
sS'daimenshan'
p4321
I1
sS'Enrollment'
p4322
I1
sS'pick'
p4323
I1
sS'Skago'
p4324
I1
sS'SimplifyExpression'
p4325
I2
sS'hand'
p4326
I1
sS'cessation'
p4327
I10
sS'fQ0KLS0'
p4328
I1
sS'multi-bolt'
p4329
I1
sS'kafiyot'
p4330
I1
sS'Y'
p4331
I6
sS'strength'
p4332
I3
sS'rXnyDX'
p4333
I1
sS'cycle'
p4334
I1
sS'bgu.ac.il'
p4335
I1
sS'prescribed'
p4336
I1
sS'specialize'
p4337
I1
sS'cdcaf'
p4338
I1
sS'cultural'
p4339
I14
sS'efficient'
p4340
I1
sS'options'
p4341
I10
sS'Electrification'
p4342
I1
sS'Pedestrian'
p4343
I3
sS'Education.'
p4344
I2
sS'contact'
p4345
I96
sS'impediment'
p4346
I1
sS'encounter'
p4347
I1
sS'Dika'
p4348
I2
sS'Proper'
p4349
I1
sS'the'
p4350
I5273
sS'Clothing'
p4351
I4
sS'musical'
p4352
I3
sS'Sarah'
p4353
I3
sS'unified'
p4354
I3
sS'Memorial'
p4355
I10
sS'stringent'
p4356
I1
sS'Lobner'
p4357
I1
sS'background'
p4358
I5
sS'laptop'
p4359
I2
sS'Forms'
p4360
I3
sS'grades'
p4361
I15
sS'via'
p4362
I82
sS'advance.'
p4363
I1
sS'thanks'
p4364
I4
sS'band,'
p4365
I1
sS'break.'
p4366
I1
sS'visualization'
p4367
I1
sS'Certificate'
p4368
I3
sS'flooring'
p4369
I1
sS'Gav'
p4370
I1
sS'Gat'
p4371
I4
sS'explanatory'
p4372
I1
sS'relatives'
p4373
I1
sS'Levy'
p4374
I2
sS'dicantat'
p4375
I1
sS'utilization'
p4376
I1
sS'Gal'
p4377
I9
sS'advanced'
p4378
I9
sS'technological'
p4379
I8
sS'openings'
p4380
I1
sS'atmosphere.'
p4381
I1
sS'photographed'
p4382
I1
sS'D'
p4383
I10
sS'Filipino'
p4384
I4
sS'reservists.'
p4385
I1
sS'ZiAhbXNvXT'
p4386
I1
sS'Taking'
p4387
I1
sS'liminal'
p4388
I1
sS'Messages'
p4389
I1
sS"composer's"
p4390
I1
sS'Morning'
p4391
I1
sS'Try'
p4392
I2
sS'boxes'
p4393
I1
sS'Wind'
p4394
I1
sS'Relevant'
p4395
I4
sS'appearing'
p4396
I3
sS'Nexus'
p4397
I1
sS'Robotics'
p4398
I5
sS'country.'
p4399
I4
sS'Day'
p4400
I25
sS'Efba'
p4401
I1
sS'specific'
p4402
I1
sS'Grades'
p4403
I5
sS'offices'
p4404
I5
sS'Harcotcm'
p4405
I2
sS'Tzionhm'
p4406
I1
sS'night'
p4407
I5
sS'security'
p4408
I37
sS'starvation'
p4409
I2
sS'duesseldorf'
p4410
I2
sS'Again'
p4411
I1
sS'performing'
p4412
I2
sS'honored'
p4413
I13
sS'cybersecurity'
p4414
I4
sS'Engineering.'
p4415
I3
sS'Privileges'
p4416
I3
sS'Engineering,'
p4417
I6
sS'HW'
p4418
I2
sS'Commission'
p4419
I1
sS'graduate.'
p4420
I2
sS'godin'
p4421
I1
sS'Department'
p4422
I123
sS'wdk'
p4423
I14
sS'Exemption'
p4424
I1
sS'indirect'
p4425
I1
sS'tutorial'
p4426
I2
sS'Life'
p4427
I8
sS'ddDADADDADDD'
p4428
I1
sS'Everyone,'
p4429
I2
sS'combat'
p4430
I2
sS'00:00?'
p4431
I2
sS'Hp'
p4432
I1
sS'Hq'
p4433
I2
sS'comments'
p4434
I3
sS'asking'
p4435
I2
sS'Let'
p4436
I3
sS'00:00.'
p4437
I10
sS'Singers'
p4438
I2
sS'confusion'
p4439
I1
sS'Ha'
p4440
I2
sS'Blocking'
p4441
I2
sS'participation'
p4442
I25
sS'officer'
p4443
I1
sS'Attach'
p4444
I3
sS'School'
p4445
I3
sS'who'
p4446
I223
sS'deleted'
p4447
I3
sS'Pedestrians'
p4448
I1
sS'Yidgk'
p4449
I1
sS'graduates'
p4450
I34
sS'discount'
p4451
I1
sS'Place'
p4452
I2
sS'OUTPUT'
p4453
I2
sS'Aceafd0a'
p4454
I1
sS'post'
p4455
I212
sS'DQouTXNvQ'
p4456
I1
sS'Grad'
p4457
I1
sS'permitted'
p4458
I2
sS'pli'
p4459
I2
sS'plug'
p4460
I1
sS'run-time'
p4461
I1
sS'Fair'
p4462
I4
sS'Image'
p4463
I3
sS'months'
p4464
I11
sS'Einav'
p4465
I3
sS'dinner'
p4466
I2
sS'comment.'
p4467
I1
sS'ensure'
p4468
I5
sS'Registrar'
p4469
I6
sS'efforts'
p4470
I1
sS'runtime'
p4471
I1
sS"Gal's"
p4472
I1
sS'Best'
p4473
I3
sS'luLWJvdHRvbS'
p4474
I3
sS'Articles'
p4475
I1
sS'nPSIwIiB'
p4476
I1
sS'secretariat.'
p4477
I2
sS'presence'
p4478
I5
sS'civil'
p4479
I5
sS'Make'
p4480
I1
sS'preliminary'
p4481
I1
sS'obtaining'
p4482
I2
sS'coincided'
p4483
I2
sS'difference,'
p4484
I1
sS'Sunday.'
p4485
I4
sS'Judging'
p4486
I1
sS'fruitful'
p4487
I2
sS'cafeteria'
p4488
I7
sS'fcda'
p4489
I2
sS'deal'
p4490
I5
sS'Halgotriiding'
p4491
I1
sS'cancer.'
p4492
I1
sS'why'
p4493
I1
sS'Break'
p4494
I2
sS'HR'
p4495
I1
sS'accordingly'
p4496
I2
sS'quiet'
p4497
I19
sS'way'
p4498
I12
sS'version,'
p4499
I1
sS"Rector's"
p4500
I1
sS'was'
p4501
I39
sS'war'
p4502
I2
sS'consulting,'
p4503
I2
sS'head'
p4504
I14
sS'successfully'
p4505
I13
sS'Sundays'
p4506
I4
sS'single-door'
p4507
I1
sS'aebc'
p4508
I2
sS'wireless'
p4509
I7
sS'htbD'
p4510
I1
sS'pay.'
p4511
I1
sS'decodes'
p4512
I1
sS'decoder'
p4513
I1
sS'secretariats'
p4514
I1
sS'removed'
p4515
I1
sS'true'
p4516
I2
sS'GMT'
p4517
I2
sS'reset'
p4518
I1
sS'responding'
p4519
I1
sS'rwVMaJN'
p4520
I2
sS'consultants'
p4521
I3
sS'bmRlcmxpbmU'
p4522
I1
sS'maximum'
p4523
I1
sS'Shneiderman'
p4524
I1
sS'generosity'
p4525
I1
sS'submitting'
p4526
I8
sS'emotional'
p4527
I6
sS'Reducing'
p4528
I1
sS'LXodeV'
p4529
I1
sS'Cream'
p4530
I1
sS'Roni'
p4531
I2
sS'CyberBorint.'
p4532
I1
sS'Pergola'
p4533
I1
sS'computing'
p4534
I1
sS'Introduction'
p4535
I8
sS'Some'
p4536
I4
sS'israel'
p4537
I1
sS'inequality.'
p4538
I1
sS'nX'
p4539
I1
sS'prayer'
p4540
I1
sS'trip'
p4541
I2
sS'physical'
p4542
I5
sS'nm'
p4543
I385
sS'Zlutovsky'
p4544
I3
sS'dacd'
p4545
I2
sS'Running'
p4546
I2
sS'interested'
p4547
I29
sS'studentships'
p4548
I1
sS'papers'
p4549
I2
sS'test'
p4550
I59
sS'node'
p4551
I1
sS'Plaza.'
p4552
I5
sS'Ron.'
p4553
I1
sS'Square.'
p4554
I6
sS'Ron,'
p4555
I1
sS'Windows'
p4556
I2
sS'welcome'
p4557
I26
sS'update'
p4558
I36
sS'Academon'
p4559
I5
sS'Part-time'
p4560
I1
sS'scores'
p4561
I3
sS'troupe'
p4562
I8
sS'Autonomous'
p4563
I3
sS'infinitylabs'
p4564
I1
sS'MTAuMHB0O'
p4565
I1
sS'Estate'
p4566
I1
sS'Principles'
p4567
I2
sS'together'
p4568
I11
sS'fasted'
p4569
I1
sS'increases.'
p4570
I1
sS'reception'
p4571
I13
sS'serious'
p4572
I3
sS'songs'
p4573
I10
sS'Education,'
p4574
I1
sS'procedure.'
p4575
I1
sS'dance'
p4576
I17
sS'global'
p4577
I1
sS'focus'
p4578
I3
sS'leads'
p4579
I1
sS'known'
p4580
I4
sS'EZsave'
p4581
I2
sS'selection'
p4582
I12
sS'1st,'
p4583
I2
sS'/'
p4584
I1
sS'1st.'
p4585
I1
sS'Magid'
p4586
I2
sS'Shmilovich,'
p4587
I1
sS'Today'
p4588
I2
sS'certainly'
p4589
I2
sS'honoring'
p4590
I2
sS'promote'
p4591
I1
sS'environment'
p4592
I11
sS'post.'
p4593
I1
sS'charge'
p4594
I6
sS'Shabab'
p4595
I2
sS'promoting'
p4596
I8
sS'glad'
p4597
I1
sS'Affairs,'
p4598
I1
sS'word,'
p4599
I1
sS'citizen,'
p4600
I1
sS'Internet.'
p4601
I1
sS'questions,'
p4602
I4
sS'dbc'
p4603
I2
sS'Present'
p4604
I2
sS'Realization'
p4605
I2
sS'division'
p4606
I1
sS'Oren'
p4607
I10
sS'advantage'
p4608
I10
sS'nXmdeo'
p4609
I1
sS'reputation,'
p4610
I1
sS'educated'
p4611
I3
sS'later'
p4612
I14
sS'Legal'
p4613
I2
sS'emphasizes'
p4614
I4
sS'nXpyDXntei'
p4615
I1
sS'fafa'
p4616
I2
sS'Tech'
p4617
I1
sS'Artistic'
p4618
I4
sS'entries'
p4619
I1
sS'LTY0Nzk'
p4620
I1
sS'Enrichment'
p4621
I1
sS'cool'
p4622
I1
sS'Chemical'
p4623
I2
sS'impressive'
p4624
I1
sS'Just'
p4625
I1
sS'presented'
p4626
I8
sS'OjEyLjBwdDsNCglmb'
p4627
I1
sS'Diller'
p4628
I1
sS'Global'
p4629
I1
sS'posts'
p4630
I19
sS'gun'
p4631
I1
sS'standards'
p4632
I1
sS'p'
p4633
I12
sS'quick'
p4634
I10
sS'Architecture,'
p4635
I1
sS'He'
p4636
I4
sS'Debate'
p4637
I10
sS'added'
p4638
I1
sS'BGU'
p4639
I15
sS'illustrating'
p4640
I1
sS'valid,'
p4641
I1
sS'abb0'
p4642
I2
sS'Mission"'
p4643
I1
sS'0ffe'
p4644
I2
sS'cost'
p4645
I5
sS'realization,'
p4646
I1
sS'voucher'
p4647
I1
sS'port'
p4648
I1
sS'Red'
p4649
I2
sS'stressful'
p4650
I1
sS'appear'
p4651
I4
sS'Form'
p4652
I8
sS'VsbHNwYWNpbmc'
p4653
I1
sS'candle'
p4654
I11
sS'assistance'
p4655
I28
sS'remain'
p4656
I4
sS'Dalet'
p4657
I2
sS'Imaging'
p4658
I1
sS'During'
p4659
I13
sS'appeal'
p4660
I14
sS'health.'
p4661
I1
sS'supporting'
p4662
I1
sS'overseers'
p4663
I1
sS'confirmation'
p4664
I2
sS'inauguration'
p4665
I1
sS'Attached'
p4666
I94
sS'Quiet'
p4667
I1
sS'downloaded'
p4668
I2
sS'groups'
p4669
I31
sS'English'
p4670
I14
sS'confused'
p4671
I1
sS'Distribution'
p4672
I2
sS'club.'
p4673
I1
sS'his'
p4674
I14
sS'appears'
p4675
I4
sS'change'
p4676
I25
sS'sending'
p4677
I1
sS'exemption'
p4678
I7
sS'Reservoir'
p4679
I1
sS'suspension.'
p4680
I1
sS'overrides'
p4681
I1
sS'dee'
p4682
I3
sS'trial'
p4683
I2
sS'exams'
p4684
I38
sS'usually'
p4685
I5
sS'Eecs'
p4686
I1
sS'industry.'
p4687
I2
sS'industry,'
p4688
I1
sS'extra'
p4689
I2
sS'Ariel'
p4690
I2
sS'problematic'
p4691
I3
sS'frustration,'
p4692
I1
sS'Visit'
p4693
I3
sS'marked'
p4694
I3
sS'Member'
p4695
I5
sS'Mondays'
p4696
I2
sS'fbf'
p4697
I3
sS'fbd'
p4698
I1
sS'conducting'
p4699
I1
sS'crisis'
p4700
I3
sS'market'
p4701
I4
sS'challenging'
p4702
I10
sS'handled'
p4703
I2
sS'prove'
p4704
I1
sS'efeb'
p4705
I1
sS'sends'
p4706
I2
sS'ca0'
p4707
I4
sS'sports'
p4708
I1
sS'ohDQrXm'
p4709
I1
sS'Geraldina.'
p4710
I1
sS'live'
p4711
I7
sS'approach'
p4712
I2
sS'https'
p4713
I173
sS'memory'
p4714
I13
sS'cGVybGluaw0KCXttc'
p4715
I1
sS'organization.'
p4716
I1
sS'Enter'
p4717
I2
sS'organization,'
p4718
I1
sS'York'
p4719
I1
sS'Donuts'
p4720
I1
sS'entrance'
p4721
I14
sS'October'
p4722
I3
sS'Indp'
p4723
I1
sS'F'
p4724
I3
sS'club'
p4725
I2
sS'Monday.'
p4726
I6
sS'Require'
p4727
I2
sS'Thursday,'
p4728
I15
sS'envelope'
p4729
I3
sS'Union,'
p4730
I1
sS'proposed.'
p4731
I1
sS'particular,'
p4732
I1
sS'Ashx'
p4733
I1
sS'LCBkaXYuY'
p4734
I1
sS'cases'
p4735
I4
sS'VyaWYiO'
p4736
I2
sS'Procedure'
p4737
I2
sS'organizations'
p4738
I10
sS'committee,'
p4739
I2
sS'Family'
p4740
I3
sS'car'
p4741
I1
sS'payis'
p4742
I1
sS'incidents'
p4743
I1
sS'can'
p4744
I146
sS'cac'
p4745
I2
sS'cab'
p4746
I4
sS'caa'
p4747
I3
sS'Mod'
p4748
I3
sS'Abstract'
p4749
I1
sS'http:'
p4750
I44
sS'heart'
p4751
I1
sS'dedicated'
p4752
I3
sS'zZWN'
p4753
I1
sS'earphone'
p4754
I1
sS'topic'
p4755
I22
sS'heard'
p4756
I5
sS'Exam'
p4757
I3
sS'counting'
p4758
I3
sS'clothing'
p4759
I1
sS'productive'
p4760
I1
sS'requirements'
p4761
I5
sS'dispositions'
p4762
I1
sS'Marketing'
p4763
I2
sS'discussion'
p4764
I7
sS'exceptional'
p4765
I4
sS'Underwood'
p4766
I4
sS'write'
p4767
I5
sS'Barak'
p4768
I2
sS'future,'
p4769
I1
sS'fourth'
p4770
I6
sS'vitae'
p4771
I3
sS'product'
p4772
I5
sS'cocktail'
p4773
I2
sS'audiens.'
p4774
I1
sS'Average'
p4775
I4
sS'Purim.'
p4776
I1
sS'substitute'
p4777
I2
sS'sought-after'
p4778
I1
sS'produce'
p4779
I1
sS'status,'
p4780
I1
sS'Rivka'
p4781
I6
sS'renovation'
p4782
I1
sS'View'
p4783
I1119
sS'classroom'
p4784
I11
sS'Ashkelon'
p4785
I1
sS'branches'
p4786
I1
sS'remember'
p4787
I1
sS'succeeded'
p4788
I1
sS'whenever'
p4789
I1
sS'candles'
p4790
I16
sS'explicit'
p4791
I1
sS'inform'
p4792
I28
sS'cdae'
p4793
I2
sS'Kim'
p4794
I1
sS'representation'
p4795
I5
sS'eefba'
p4796
I2
sS'Morton'
p4797
I2
sS'refund'
p4798
I1
sS'exclusive'
p4799
I1
sS'no.'
p4800
I4
sS'serving'
p4801
I2
sS'park,'
p4802
I1
sS'serve'
p4803
I5
sS'indeed'
p4804
I2
sS'raised'
p4805
I3
sS'making'
p4806
I5
sS'brain'
p4807
I1
sS'conversation,'
p4808
I1
sS'managers'
p4809
I3
sS'weather.'
p4810
I2
sS'still'
p4811
I2
sS'Ri'
p4812
I1
sS'university.'
p4813
I2
sS'RT'
p4814
I3
sS'respect'
p4815
I1
sS'adjustments.'
p4816
I2
sS'RR'
p4817
I1
sS'uaWwgLSDXlteVINeU'
p4818
I1
sS'Rules'
p4819
I21
sS'XXodek'
p4820
I1
sS'RD'
p4821
I2
sS'platform'
p4822
I2
sS'window'
p4823
I2
sS'RG'
p4824
I2
sS'coordinated'
p4825
I1
sS'areas'
p4826
I16
sS'gate'
p4827
I12
sS'ZiI'
p4828
I1
sS'R0'
p4829
I1
sS'songs.'
p4830
I1
sS"for'"
p4831
I1
sS'Fall'
p4832
I2
sS'introduce'
p4833
I2
sS'qualified'
p4834
I2
sS'half'
p4835
I8
sS'not'
p4836
I232
sS'now'
p4837
I7
sS'provision'
p4838
I2
sS'discuss'
p4839
I68
sS'Glasses'
p4840
I1
sS'execute'
p4841
I2
sS'hanera'
p4842
I1
sS'name'
p4843
I20
sS'corners'
p4844
I1
sS'Examples'
p4845
I2
sS'form.'
p4846
I3
sS'academy'
p4847
I1
sS'form,'
p4848
I2
sS'soon.'
p4849
I4
sS'realistic'
p4850
I1
sS'Critical'
p4851
I1
sS'fXqdejINec'
p4852
I1
sS'apply.'
p4853
I2
sS'surveying.'
p4854
I1
sS'individually'
p4855
I2
sS'department,'
p4856
I8
sS'domain'
p4857
I1
sS'en'
p4858
I2
sS'fired'
p4859
I1
sS'ee'
p4860
I32
sS'ed'
p4861
I21
sS'eg'
p4862
I1
sS'ef'
p4863
I22
sS'ea'
p4864
I26
sS'ec'
p4865
I38
sS'eb'
p4866
I18
sS'challenges'
p4867
I6
sS'Elop'
p4868
I1
sS'Z0LWNvbTpvZmZpY'
p4869
I1
sS'gaps'
p4870
I1
sS'begun'
p4871
I5
sS'year'
p4872
I151
sS'territory'
p4873
I2
sS'naming'
p4874
I1
sS'Save'
p4875
I1
sS'intended'
p4876
I34
sS'shown'
p4877
I2
sS'accomplish'
p4878
I1
sS'opened'
p4879
I6
sS'space'
p4880
I4
sS"'Office"
p4881
I1
sS'factory'
p4882
I1
sS'increase'
p4883
I10
sS'Faculties'
p4884
I2
sS'eZ'
p4885
I3
sS'selection.'
p4886
I1
sS'eV'
p4887
I1
sS'cHVycGxlOw0KCXRleHQtZGVjb'
p4888
I1
sS'shows'
p4889
I1
sS"Dean's"
p4890
I39
sS'positions,'
p4891
I1
sS'attended'
p4892
I2
sS'theory'
p4893
I2
sS'Samsung'
p4894
I4
sS'Registration'
p4895
I68
sS'Cover'
p4896
I1
sS'careers.'
p4897
I1
sS'police.'
p4898
I1
sS'Zolotobski'
p4899
I1
sS'departments:'
p4900
I1
sS'Security'
p4901
I37
sS'rLCBzcGFuLk'
p4902
I1
sS'e0'
p4903
I18
sS'card'
p4904
I4
sS'care'
p4905
I4
sS'show,'
p4906
I1
sS'Videos'
p4907
I1
sS'Geography'
p4908
I1
sS'Elbit'
p4909
I7
sS'transition'
p4910
I4
sS'roadblocks'
p4911
I1
sS'Parsing'
p4912
I1
sS'occurred.'
p4913
I1
sS'handicrafts'
p4914
I1
sS'Continue'
p4915
I1
sS'Involvement'
p4916
I1
sS'swing'
p4917
I1
sS'styles'
p4918
I1
sS'lighting'
p4919
I15
sS'nonprofit'
p4920
I1
sS'warning'
p4921
I3
sS'blind'
p4922
I3
sS'Pessah'
p4923
I1
sS'receiving'
p4924
I6
sS'McKinsey'
p4925
I4
sS'market.'
p4926
I1
sS'Asif'
p4927
I1
sS'variables'
p4928
I9
sS'FsaWJyaTsNCglwYW'
p4929
I1
sS'yourself'
p4930
I3
sS'Start'
p4931
I3
sS'xy'
p4932
I1
sS'directly'
p4933
I16
sS'Medicine'
p4934
I3
sS'impossible'
p4935
I1
sS'ring'
p4936
I1
sS'Shapira,'
p4937
I5
sS'tomorrow'
p4938
I20
sS'millions'
p4939
I2
sS'cefb'
p4940
I2
sS'fQ0KLnNoYXBlIHtiZWhhdmlvcjp'
p4941
I1
sS'given'
p4942
I19
sS'necessarily'
p4943
I1
sS'sheet'
p4944
I9
sS'Arabs,'
p4945
I1
sS"Readers'"
p4946
I1
sS'd0b'
p4947
I4
sS'Date'
p4948
I5
sS'white'
p4949
I1
sS'Conference.'
p4950
I1
sS'Data'
p4951
I14
sS'Response'
p4952
I2
sS'lkOmltYWdlMDAyLmpwZ0AwMUQxMjQ'
p4953
I1
sS'HIGHER'
p4954
I1
sS'PXqNeaINec'
p4955
I1
sS'exploring'
p4956
I1
sS'Shalom.'
p4957
I1
sS'Synagogue'
p4958
I10
sS'Scholar'
p4959
I1
sS'mostly'
p4960
I1
sS'that'
p4961
I336
sS'season'
p4962
I1
sS'donor'
p4963
I1
sS'short'
p4964
I5
sS'TXqNeZ'
p4965
I1
sS'IkNvbnRlbnQtVHlwZSIg'
p4966
I1
sS'operates'
p4967
I4
sS'than'
p4968
I18
sS'semantics'
p4969
I1
sS'population'
p4970
I2
sS'wide'
p4971
I2
sS'unfortunately'
p4972
I1
sS'Conferences'
p4973
I16
sS'accordance'
p4974
I14
sS'parsing,'
p4975
I1
sS'require'
p4976
I2
sS'transferred'
p4977
I9
sS'10:00'
p4978
I6
sS'return.'
p4979
I6
sS'solutions.'
p4980
I1
sS'roundtrip'
p4981
I1
sS'computer'
p4982
I18
sS'bXlSDXlNeT'
p4983
I1
sS'cards'
p4984
I2
sS'Passion'
p4985
I4
sS'outcome'
p4986
I1
sS"club's"
p4987
I1
sS'survey,'
p4988
I1
sS'published'
p4989
I34
sS'and'
p4990
I2392
sS'armored'
p4991
I1
sS"A's"
p4992
I1
sS'dynamically'
p4993
I1
sS'Congratulations'
p4994
I1
sS'visitor,'
p4995
I1
sS'PhD'
p4996
I1
sS'Units'
p4997
I2
sS'GilieG'
p4998
I1
sS'Call'
p4999
I2
sS'supervision'
p5000
I4
sS'Mail'
p5001
I3
sS'Main'
p5002
I3
sS'any'
p5003
I29
sS'marathon'
p5004
I18
sS'Mimon'
p5005
I1
sS'conversion'
p5006
I1
sS'form'
p5007
I65
sS'programs,'
p5008
I2
sS'Pomegranate'
p5009
I1
sS'Students.'
p5010
I17
sS'overcoming'
p5011
I1
sS'Beit'
p5012
I6
sS'sciences'
p5013
I9
sS'emphasis'
p5014
I4
sS'Operating'
p5015
I1
sS'ucyAqLw0KcC'
p5016
I1
sS'online'
p5017
I5
sS'Php'
p5018
I29
sS'becoming'
p5019
I1
sS'use.'
p5020
I2
sS'begin'
p5021
I13
sS'sure'
p5022
I11
sS'paths.'
p5023
I2
sS'File'
p5024
I2
sS'price'
p5025
I5
sS'cases,'
p5026
I1
sS'Supervision'
p5027
I1
sS'visitors'
p5028
I1
sS'donation'
p5029
I1
sS'Protective'
p5030
I5
sS'technology-intensive'
p5031
I2
sS'fce'
p5032
I6
sS'fcf'
p5033
I5
sS'0cc'
p5034
I2
sS'librarian'
p5035
I1
sS'cleared'
p5036
I1
sS'Bitty'
p5037
I1
sS'music.'
p5038
I1
sS'considered'
p5039
I9
sS'YXRhPSIxIiAvPg0KPC'
p5040
I1
sS'proud'
p5041
I1
sS'implications'
p5042
I1
sS'inhibitors'
p5043
I1
sS'science,'
p5044
I2
sS'playing'
p5045
I4
sS'Goldberg'
p5046
I1
sS'Recommendation'
p5047
I3
sS'professional'
p5048
I69
sS'senior'
p5049
I2
sS'NRW'
p5050
I4
sS'filing'
p5051
I3
sS'Fucy'
p5052
I1
sS'Ashdod'
p5053
I1
sS'shakedka'
p5054
I1
sS'Candidate'
p5055
I1
sS'Renewal'
p5056
I1
sS'workshops'
p5057
I38
sS'XXqiDXoteR'
p5058
I1
sS'What'
p5059
I10
sS'bjpzY'
p5060
I1
sS'Research'
p5061
I9
sS'discovered'
p5062
I1
sS'Fellowship'
p5063
I7
sS'Df'
p5064
I4
sS'Promoting'
p5065
I1
sS'Dahan.'
p5066
I1
sS'0dfe0b'
p5067
I2
sS'Guzik'
p5068
I2
sS'ground'
p5069
I1
sS'antennas'
p5070
I3
sS'upgrade'
p5071
I2
sS'Posting'
p5072
I18
sS'title'
p5073
I1
sS'Mechina'
p5074
I2
sS'DEDDAD'
p5075
I2
sS'state'
p5076
I9
sS'only'
p5077
I81
sS'retiring'
p5078
I1
sS'Duesseldorf'
p5079
I1
sS'Balaban'
p5080
I2
sS'bef0'
p5081
I2
sS'first'
p5082
I79
sS'Rahat'
p5083
I1
sS'closed'
p5084
I19
sS'Ypiter'
p5085
I1
sS'H'
p5086
I1
sS'maagancenter'
p5087
I1
sS'space,'
p5088
I1
sS'space.'
p5089
I1
sS'mission'
p5090
I9
sS'Technician'
p5091
I1
sS'workshop,'
p5092
I1
sS'Students,'
p5093
I15
sS'high-quality'
p5094
I3
sS'jXm'
p5095
I3
sS'celebrate'
p5096
I1
sS'closure'
p5097
I2
sS'regarding'
p5098
I28
sS'Martha'
p5099
I2
sS"Anat's"
p5100
I1
sS'paper'
p5101
I1
sS"secretariat's"
p5102
I1
sS'Clarinet'
p5103
I1
sS'dbae'
p5104
I1
sS'Urim'
p5105
I6
sS'concert'
p5106
I10
sS'EMC'
p5107
I3
sS'subscribe'
p5108
I65
sS'Accumulating'
p5109
I1
sS'Apps'
p5110
I1
sS'site.'
p5111
I11
sS'wdk.'
p5112
I1
sS'Location'
p5113
I34
sS'parking'
p5114
I17
sS'Kirschenbaum'
p5115
I1
sS'SCADA'
p5116
I2
sS'cadets'
p5117
I5
sS'Eyal'
p5118
I2
sS'israeli'
p5119
I1
sS'come.'
p5120
I1
sS'dz0idXJuOnNjaGVt'
p5121
I1
sS'ways'
p5122
I3
sS'//modle.blogspot.com/forum/viewtopic.php?f=id=1&title=http://gmail.com'
p5123
I2
sS'Atzmaut'
p5124
I1
sS'materials'
p5125
I1
sS'PHht'
p5126
I1
sS'3'
p5127
I7
sS'Yoel'
p5128
I1
sS'tutor.'
p5129
I1
sS'Members'
p5130
I2
sS'between'
p5131
I71
sS'it'
p5132
I64
sS'broadinstitute'
p5133
I1
sS'Halochem'
p5134
I1
sS'Harlow'
p5135
I1
sS'arrival'
p5136
I2
sS'notice'
p5137
I7
sS'0eXBlOnBlcnNvbmFsLXJlcGx'
p5138
I1
sS'Natural'
p5139
I5
sS'Target'
p5140
I1
sS'counselors.'
p5141
I1
sS'Youtube'
p5142
I1
sS'Complex'
p5143
I5
sS'Team'
p5144
I6
sS'article'
p5145
I2
sS'cities'
p5146
I1
sS'come'
p5147
I24
sS'fcbfd'
p5148
I3
sS'Songs'
p5149
I1
sS'stipends'
p5150
I2
sS'Alphathon'
p5151
I4
sS'installation'
p5152
I3
sS'talented'
p5153
I1
sS'Give'
p5154
I1
sS'tutors'
p5155
I5
sS'region'
p5156
I1
sS'S'
p5157
I2
sS'contract'
p5158
I1
sS'Manager'
p5159
I1
sS'Individual'
p5160
I2
sS'significant.'
p5161
I1
sS'eb0'
p5162
I5
sS'share'
p5163
I1
sS'fail,'
p5164
I1
sS'comes'
p5165
I2
sS'duty'
p5166
I24
sS'Polbramacher,'
p5167
I1
sS"Sha'ar"
p5168
I1
sS'odeZ'
p5169
I1
sS'attache'
p5170
I1
sS'color'
p5171
I2
sS'Pictures'
p5172
I1
sS'Travel'
p5173
I3
sS'robotics'
p5174
I6
sS'eadb'
p5175
I2
sS'period'
p5176
I21
sS'insist'
p5177
I1
sS'Note'
p5178
I8
sS'tbGVmdDow'
p5179
I1
sS'Interested'
p5180
I2
sS'four,'
p5181
I1
sS'learning'
p5182
I27
sS'dormitories.'
p5183
I2
sS'hvr'
p5184
I2
sS'Events'
p5185
I1
sS'save'
p5186
I65
sS'babycoord'
p5187
I2
sS'subscribed'
p5188
I1
sS'informed'
p5189
I4
sS'But'
p5190
I1
sS'Unsubscribe'
p5191
I65
sS'peaceful'
p5192
I1
sS'Schools'
p5193
I2
sS'Carmi'
p5194
I3
sS'direction'
p5195
I1
sS'Berti'
p5196
I1
sS'blessing'
p5197
I5
sS'Eitan.'
p5198
I1
sS'Together'
p5199
I1
sS'facilitator'
p5200
I3
sS'Telekom'
p5201
I6
sS'Folbermacher'
p5202
I1
sS'external'
p5203
I3
sS'Highlight'
p5204
I3
sS'careful'
p5205
I3
sS'spirit'
p5206
I4
sS'protocols'
p5207
I1
sS'case'
p5208
I11
sS'Mandatory'
p5209
I4
sS'stand'
p5210
I9
sS'TASC.'
p5211
I1
sS'developing'
p5212
I5
sS'these'
p5213
I18
sS'Aryeh'
p5214
I4
sS'www.bgu'
p5215
I1
sS'cash'
p5216
I3
sS'0aa'
p5217
I5
sS'0ab'
p5218
I4
sS'0ac'
p5219
I6
sS'0ae'
p5220
I4
sS'spotlight.'
p5221
I2
sS'spotlight,'
p5222
I1
sS'+2.'
p5223
I1
sS'workshop.'
p5224
I3
sS'taking'
p5225
I1
sS'coolest'
p5226
I1
sS'Oranshemesh'
p5227
I1
sS'orientation'
p5228
I2
sS'ramp'
p5229
I1
sS'Preparatory'
p5230
I2
sS'Dick'
p5231
I1
sS'person.'
p5232
I1
sS'Bat'
p5233
I2
sS'band.'
p5234
I3
sS'commander'
p5235
I2
sS'Better'
p5236
I1
sS'canceled'
p5237
I6
sS'someone'
p5238
I2
sS'conducted.'
p5239
I1
sS'XXk'
p5240
I3
sS'Flexible'
p5241
I2
sS'Division'
p5242
I5
sS'Israel'
p5243
I47
sS'develop'
p5244
I1
sS'Sixth'
p5245
I1
sS'Peretz'
p5246
I2
sS'thinking.'
p5247
I1
sS'Departments.'
p5248
I1
sS'check'
p5249
I20
sS'shifts'
p5250
I12
sS'html'
p5251
I18
sS'limited.'
p5252
I7
sS'charge.'
p5253
I1
sS'limited,'
p5254
I2
sS'PHhtbD'
p5255
I1
sS'reminder'
p5256
I2
sS'document'
p5257
I8
sS'Silver'
p5258
I2
sS'generated'
p5259
I1
sS'status'
p5260
I21
sS'finish'
p5261
I2
sS'closest'
p5262
I1
sS'acdd'
p5263
I2
sS'marking'
p5264
I2
sS'L'
p5265
I7
sS'director'
p5266
I1
sS'jufC'
p5267
I1
sS'IO'
p5268
I2
sS'award-winning'
p5269
I1
sS'events.'
p5270
I1
sS'changing'
p5271
I1
sS'IC'
p5272
I1
sS'ID'
p5273
I6
sS'reference'
p5274
I6
sS'Description'
p5275
I7
sS'event.'
p5276
I5
sS'Failures'
p5277
I1
sS'YmVoYXZpb'
p5278
I3
sS'Is'
p5279
I3
sS'no'
p5280
I50
sS'It'
p5281
I15
sS'Hativat'
p5282
I1
sS'invites'
p5283
I51
sS'Psychological'
p5284
I15
sS'Ij'
p5285
I1
sS'Il'
p5286
I24
sS'components'
p5287
I2
sS'In'
p5288
I89
sS'cce'
p5289
I2
sS'accessible'
p5290
I5
sS'laboratories'
p5291
I4
sS'cca'
p5292
I5
sS'Id'
p5293
I4
sS'bodies'
p5294
I1
sS'charged'
p5295
I2
sS'comment'
p5296
I74
sS'United'
p5297
I3
sS'am,'
p5298
I1
sS'Service'
p5299
I30
sS'am.'
p5300
I1
sS'when'
p5301
I20
sS'citizenship,'
p5302
I1
sS'dancers'
p5303
I5
sS'qcGddDQoNCg0KDQpiZ'
p5304
I1
sS'ninth'
p5305
I1
sS'foot'
p5306
I1
sS'sbnM'
p5307
I3
sS'greetings'
p5308
I2
sS'Https'
p5309
I3
sS'formulating'
p5310
I1
sS'touch'
p5311
I1
sS'announcement'
p5312
I3
sS'gather'
p5313
I1
sS'renewed'
p5314
I2
sS'Practitioner'
p5315
I2
sS'Linear'
p5316
I1
sS'curriculum.'
p5317
I1
sS'euros'
p5318
I1
sS'possible.'
p5319
I5
sS'seems'
p5320
I1
sS'except'
p5321
I5
sS'improvement'
p5322
I2
sS'blog'
p5323
I3
sS'Applications'
p5324
I6
sS'GZWObXd'
p5325
I1
sS'setting'
p5326
I5
sS'9:30'
p5327
I1
sS'shanigu'
p5328
I1
sS'samples'
p5329
I1
sS'Scores'
p5330
I2
sS'Tsur'
p5331
I2
sS'scheduled'
p5332
I8
sS'Shfela'
p5333
I2
sS'address:'
p5334
I1
sS'rules'
p5335
I4
sS'Phillip'
p5336
I2
sS'Advisor'
p5337
I2
sS'calendars'
p5338
I1
sS'Headquarters'
p5339
I1
sS'Project'
p5340
I8
sS'np'
p5341
I1
sS'Solomon'
p5342
I4
sS'action.'
p5343
I1
sS'address,'
p5344
I1
sS'undergraduates'
p5345
I1
sS'listening'
p5346
I1
sS'using'
p5347
I11
sS'execution'
p5348
I2
sS'Tali'
p5349
I21
sS'e0cc'
p5350
I3
sS'published.'
p5351
I2
sS'dates,'
p5352
I2
sS'satisfaction'
p5353
I2
sS'https:'
p5354
I6
sS'Producer'
p5355
I2
sS'Show'
p5356
I1
sS'conducts'
p5357
I1
sS'consultants.'
p5358
I1
sS'annually'
p5359
I1
sS'Shoa'
p5360
I1
sS'benefit'
p5361
I4
sS'a0ec'
p5362
I2
sS't'
p5363
I6
sS'always'
p5364
I3
sS'output'
p5365
I6
sS'Operation'
p5366
I13
sS'Tuviyahu'
p5367
I1
sS'leHRlcm'
p5368
I1
sS'Before'
p5369
I5
sS'temporary,'
p5370
I1
sS'Ram'
p5371
I6
sS'exposed'
p5372
I1
sS'Brides'
p5373
I1
sS'Since'
p5374
I2
sS'gmail'
p5375
I19
sS'competition'
p5376
I9
sS'Telephone'
p5377
I44
sS'exposes'
p5378
I1
sS'Ellen'
p5379
I1
sS'Printers'
p5380
I2
sS'duration'
p5381
I6
sS'rehearsing'
p5382
I1
sS'questionnaire'
p5383
I2
sS'brothers'
p5384
I1
sS'Center.'
p5385
I3
sS'provided'
p5386
I6
sS'Center,'
p5387
I2
sS'Effective'
p5388
I5
sS'Government'
p5389
I7
sS"o'clock"
p5390
I2
sS'recorded'
p5391
I2
sS'0fac'
p5392
I1
sS'edbb'
p5393
I2
sS'wpdf'
p5394
I63
sS'babysitter'
p5395
I3
sS'deficit'
p5396
I2
sS'provides'
p5397
I8
sS'refreshments.'
p5398
I1
sS'content'
p5399
I3
sS'quitting'
p5400
I1
sS'SyntaxErrorException'
p5401
I3
sS'assembly'
p5402
I7
sS'shekels'
p5403
I1
sS'qEjz'
p5404
I1
sS'equivalent'
p5405
I1
sS'tuition'
p5406
I5
sS'credits'
p5407
I1
sS'evolve'
p5408
I1
sS'references'
p5409
I1
sS'Promotion'
p5410
I10
sS'exciting'
p5411
I5
sS'Playing'
p5412
I2
sS'Mathematical'
p5413
I1
sS'on'
p5414
I686
sS'central'
p5415
I3
sS'cbab'
p5416
I1
sS'Biton'
p5417
I1
sS'og'
p5418
I4
sS'of'
p5419
I2383
sS'ScienceTutoringProject'
p5420
I1
sS'discussed'
p5421
I4
sS'fell'
p5422
I3
sS'supervised'
p5423
I3
sS'free.'
p5424
I1
sS'lOmV'
p5425
I1
sS'underway'
p5426
I1
sS'Nwm'
p5427
I1
sS'Defines'
p5428
I1
sS'or'
p5429
I192
sS'Story'
p5430
I1
sS'bbd'
p5431
I3
sS'follows'
p5432
I4
sS'communication'
p5433
I5
sS'Cumulative'
p5434
I3
sS'DQoNCg0KDQpbY'
p5435
I1
sS'Add'
p5436
I129
sS'accounts'
p5437
I1
sS'qaVYLE'
p5438
I1
sS'Ada'
p5439
I1
sS'SharePoint,'
p5440
I1
sS'training,'
p5441
I1
sS'Meeting'
p5442
I3
sS'your'
p5443
I247
sS'Adi'
p5444
I2
sS'Zlotowski'
p5445
I24
sS'jXmiDXnNee'
p5446
I1
sS'USIEF'
p5447
I1
sS'prepare'
p5448
I10
sS'area'
p5449
I11
sS'strictly'
p5450
I1
sS'there'
p5451
I70
sS'relocation'
p5452
I1
sS'0be'
p5453
I2
sS'start'
p5454
I15
sS'eUIQ0KINeU'
p5455
I1
sS'DDDDF'
p5456
I1
sS'low'
p5457
I2
sS'Letter'
p5458
I1
sS'0bb'
p5459
I2
sS'Floor:'
p5460
I2
sS'ccaf'
p5461
I2
sS'Curing'
p5462
I1
sS'you.'
p5463
I30
sS'you,'
p5464
I5
sS'hSF'
p5465
I1
sS'Remember'
p5466
I1
sS'0Application'
p5467
I1
sS'signs'
p5468
I4
sS'shlichutbs'
p5469
I1
sS'Experience'
p5470
I10
sS'idea'
p5471
I2
sS'Gorovoy'
p5472
I1
sS'you:'
p5473
I1
sS'trying'
p5474
I2
sS'pressybutton'
p5475
I1
sS'faster'
p5476
I1
sS'RDt'
p5477
I1
sS'00.00'
p5478
I1
sS'applying'
p5479
I3
sS'0b0'
p5480
I2
sS'mazorna'
p5481
I1
sS'default'
p5482
I4
sS'Sciences'
p5483
I18
sS"organizations'"
p5484
I1
sS'Joseph'
p5485
I2
sS'YXV0'
p5486
I1
sS'classes.'
p5487
I1
sS'Special'
p5488
I2
sS'Build'
p5489
I1
sS'strongly'
p5490
I2
sS'Announcement'
p5491
I1
sS'IjEwMjgiIC'
p5492
I1
sS'NCteY'
p5493
I1
sS'cbe'
p5494
I4
sS'moved'
p5495
I1
sS'Mission'
p5496
I2
sS'HearOexperiment'
p5497
I1
sS'scanned'
p5498
I6
sS'V0PXV0Zi0'
p5499
I1
sS'daily'
p5500
I10
sS'Assistive'
p5501
I1
sS'Mathematics'
p5502
I5
sS'Sukkot.'
p5503
I1
sS'technologies.'
p5504
I1
sS'Sukkot,'
p5505
I1
sS'IkdlbmVyYXRv'
p5506
I1
sS'faceafd0a'
p5507
I1
sS'director,'
p5508
I1
sS'Lab'
p5509
I3
sS'relationship'
p5510
I2
sS'details.'
p5511
I1
sS'website,'
p5512
I5
sS'housework'
p5513
I1
sS'valid'
p5514
I2
sS'Rector,'
p5515
I1
sS'mathematics'
p5516
I1
sS'you'
p5517
I404
sS'Law'
p5518
I2
sS'Anis'
p5519
I1
sS'requested'
p5520
I38
sS'Great'
p5521
I1
sS'championship'
p5522
I1
sS'ICL'
p5523
I3
sS'Zichron'
p5524
I1
sS'symbol'
p5525
I2
sS'2009-2017.'
p5526
I1
sS'includes'
p5527
I17
sS'IFJvbWFuIiwic'
p5528
I2
sS'edc'
p5529
I2
sS'suited'
p5530
I1
sS'included'
p5531
I6
sS'Entry'
p5532
I1
sS'spouse'
p5533
I1
sS'Miri'
p5534
I6
sS'building'
p5535
I51
sS'booked'
p5536
I1
sS'Mexican'
p5537
I7
sS'calls'
p5538
I1
sS'Rectors'
p5539
I2
sS'library:'
p5540
I1
sS'evening.'
p5541
I1
sS'Workshops'
p5542
I12
sS'websites'
p5543
I1
sS'environment.'
p5544
I2
sS'Floor'
p5545
I22
sS'procedure'
p5546
I1
sS'ff0f0b0'
p5547
I2
sS'directory'
p5548
I1
sS'library.'
p5549
I3
sS'all'
p5550
I146
sS'Practice'
p5551
I5
sS'fa0'
p5552
I1
sS'month'
p5553
I8
sS'coach'
p5554
I2
sS'deadline'
p5555
I7
sS'Take'
p5556
I1
sS'bekerdmi'
p5557
I1
sS'follow'
p5558
I34
sS'settlement'
p5559
I1
sS'religious'
p5560
I2
sS'Ensemble'
p5561
I1
sS'glimpse'
p5562
I1
sS'MidTerm'
p5563
I2
sS'Ella'
p5564
I2
sS'Title'
p5565
I1
sS'LXk'
p5566
I1
sS'opportunities'
p5567
I21
sS'removal'
p5568
I1
sS'Mirsky'
p5569
I1
sS'foster'
p5570
I2
sS'dairy'
p5571
I2
sS'eletel'
p5572
I1
sS'presentation'
p5573
I9
sS'weeks'
p5574
I3
sS'Logistics'
p5575
I9
sS'belonging'
p5576
I1
sS'woman'
p5577
I1
sS'everyone,'
p5578
I7
sS'everyone.'
p5579
I2
sS'very'
p5580
I26
sS'Excellent'
p5581
I5
sS'bXNvLXN0eWxlLW'
p5582
I1
sS'syllabuses'
p5583
I1
sS'decide'
p5584
I1
sS'tomorrow.'
p5585
I1
sS'fac'
p5586
I2
sS'tomorrow,'
p5587
I5
sS'faa'
p5588
I2
sS'faf'
p5589
I1
sS'fad'
p5590
I4
sS'fae'
p5591
I1
sS'Nursing'
p5592
I1
sS'evaluation'
p5593
I1
sS'Testing'
p5594
I1
sS'list'
p5595
I17
sS'replaced'
p5596
I1
sS'random'
p5597
I1
sS'study'
p5598
I29
sS'programme'
p5599
I5
sS'employing'
p5600
I1
sS'tel'
p5601
I1
sS'ten'
p5602
I1
sS'GUI'
p5603
I1
sS'Terms'
p5604
I3
sS'track,'
p5605
I1
sS'rate'
p5606
I1
sS'design'
p5607
I6
sS'nbn'
p5608
I1
sS'Re-refresh'
p5609
I2
sS'poll'
p5610
I1
sS'uZTt'
p5611
I1
sS'what'
p5612
I12
sS'nano'
p5613
I1
sS'Sefarim'
p5614
I1
sS'deeply'
p5615
I1
sS'sum'
p5616
I1
sS'Max'
p5617
I1
sS'learner'
p5618
I1
sS'brief'
p5619
I3
sS'public'
p5620
I21
sS'him,'
p5621
I1
sS'version'
p5622
I10
sS'CEOs'
p5623
I2
sS'Tel-Ophon'
p5624
I1
sS'certificates'
p5625
I1
sS'learned'
p5626
I4
sS'retention'
p5627
I1
sS'Ruso'
p5628
I1
sS'tags'
p5629
I1
sS'ma'
p5630
I1
sS'Alltel'
p5631
I1
sS'answers'
p5632
I8
sS'Object'
p5633
I3
sS'South,'
p5634
I1
sS'EC'
p5635
I1
sS'PXqdeUINeV'
p5636
I1
sS'stalls,'
p5637
I1
sS'strong'
p5638
I5
sS'IVtlbmRpZl0tLT'
p5639
I1
sS'advisable'
p5640
I1
sS'dining'
p5641
I1
sS'ScreenExample'
p5642
I2
sS'certificate.'
p5643
I1
sS'ahead'
p5644
I1
sS'Playtika'
p5645
I2
sS'Absolutely'
p5646
I1
sS'Communication'
p5647
I1
sS'vegetarian'
p5648
I2
sS'losses'
p5649
I2
sS'allows'
p5650
I5
sS'presented.'
p5651
I1
sS'Hanar'
p5652
I1
sS'soldier'
p5653
I2
sS'amount'
p5654
I6
sS'indirection'
p5655
I1
sS'advertising'
p5656
I3
sS'identity'
p5657
I2
sS"Negev's"
p5658
I1
sS'Babcom'
p5659
I1
sS'Feller,'
p5660
I1
sS'Feller.'
p5661
I2
sS'EDUCATION'
p5662
I1
sS'Reception'
p5663
I8
sS'family'
p5664
I12
sS'situations'
p5665
I3
sS'requiring'
p5666
I1
sS'Top'
p5667
I3
sS'Fair.'
p5668
I2
sS'put'
p5669
I3
sS'semester'
p5670
I37
sS'aimed'
p5671
I1
sS'operator.'
p5672
I1
sS'unpleasantness'
p5673
I2
sS"Google's"
p5674
I2
sS'takes'
p5675
I4
sS'always,'
p5676
I1
sS'0'
p5677
I3805
sS'donuts'
p5678
I1
sS'contains'
p5679
I4
sS'technological-scientific'
p5680
I1
sS'Police.'
p5681
I2
sS'taken'
p5682
I5
sS'Affairs.'
p5683
I1
sS'Rachel'
p5684
I2
sS'markets'
p5685
I2
sS'minor'
p5686
I1
sS'To:'
p5687
I1
sS'Isedep'
p5688
I1
sS'knows'
p5689
I1
sS'Ss'
p5690
I1
sS'regrettable'
p5691
I1
sS'XoNeVINen'
p5692
I1
sS'attention.'
p5693
I5
sS'vOnNoYXBlbGF'
p5694
I1
sS'Mass'
p5695
I15
sS'Attention:'
p5696
I1
sS'Testers'
p5697
I1
sS'Thing"'
p5698
I1
sS'Partial'
p5699
I6
sS'Oran'
p5700
I1
sS'hardware'
p5701
I7
sS'incubating'
p5702
I1
sS'zZXJp'
p5703
I1
sS'SS'
p5704
I1
sS'Expanding'
p5705
I1
sS'SV'
p5706
I1
sS'Doubtful'
p5707
I1
sS'e0bcc0ef'
p5708
I2
sS'bacdd'
p5709
I2
sS'nine'
p5710
I12
sS'caacc'
p5711
I3
sS'v'
p5712
I2
sS'Communications.'
p5713
I1
sS'Tomorrow'
p5714
I8
sS'SE'
p5715
I1
sS'f0'
p5716
I22
sS'IBM'
p5717
I2
sS'Familiarity'
p5718
I3
sS'Coordinators'
p5719
I1
sS'beautiful'
p5720
I2
sS'DATE'
p5721
I1
sS'phrase'
p5722
I1
sS"year's"
p5723
I2
sS'Sukkot'
p5724
I4
sS'uncheck'
p5725
I1
sS'influenced'
p5726
I2
sS'Secretary,'
p5727
I1
sS'rental,'
p5728
I1
sS'Opening'
p5729
I11
sS'IjAiIGNlbGxwYWRkaW'
p5730
I1
sS'0c0'
p5731
I2
sS'df0b'
p5732
I2
sS'conducted'
p5733
I7
sS'Labs.'
p5734
I1
sS'House.'
p5735
I6
sS'dXJsKCNkZWZhdWx0I'
p5736
I2
sS'Ex'
p5737
I2
sS'tried'
p5738
I1
sS'emulate'
p5739
I1
sS'Coordinator.'
p5740
I1
sS'Foreign'
p5741
I1
sS'fa'
p5742
I22
sS'fb'
p5743
I23
sS'fc'
p5744
I22
sS'fd'
p5745
I43
sS'fe'
p5746
I28
sS'ff'
p5747
I28
sS'North'
p5748
I6
sS'Leibovitch'
p5749
I1
sS'compulsory'
p5750
I10
sS'fn'
p5751
I537
sS'a'
p5752
I1323
sS'Everyone'
p5753
I9
sS'confirmed.'
p5754
I2
sS'Mexico'
p5755
I1
sS'prerequisites'
p5756
I6
sS'Deep'
p5757
I1
sS'Player'
p5758
I1
sS'specifying'
p5759
I1
sS'deterioration'
p5760
I1
sS'Sukkah'
p5761
I3
sS'Drafner'
p5762
I1
sS'0ca'
p5763
I2
sS'dream'
p5764
I1
sS'especially,'
p5765
I1
sS'Marathon'
p5766
I5
sS'Fill'
p5767
I1
sS'dffdb'
p5768
I1
sS'extended,'
p5769
I1
sS'help'
p5770
I13
sS'developed'
p5771
I1
sS'soon'
p5772
I12
sS'cyclists'
p5773
I1
sS'disabled'
p5774
I6
sS'held'
p5775
I83
sS'disabilities,'
p5776
I1
sS'singles'
p5777
I2
sS'Pluginfile'
p5778
I1
sS'committee'
p5779
I19
sS'committed'
p5780
I5
sS'attendee'
p5781
I1
sS'ffe'
p5782
I4
sS'developer'
p5783
I5
sS'Full'
p5784
I6
sS'March'
p5785
I6
sS'openCV'
p5786
I1
sS'Where'
p5787
I6
sS'appeals.'
p5788
I1
sS'solving'
p5789
I1
sS'fair.'
p5790
I1
sS'fair,'
p5791
I2
sS'pserv'
p5792
I2
sS'h0OjBjbTsNCglt'
p5793
I1
sS'systems'
p5794
I17
sS'founders'
p5795
I1
sS'full,'
p5796
I1
sS'cef'
p5797
I1
sS'cee'
p5798
I4
sS'evening'
p5799
I27
sS'motivated'
p5800
I2
sS'ceb'
p5801
I2
sS'food'
p5802
I5
sS'cyber.'
p5803
I1
sS'Positiv'
p5804
I1
sS'ye'
p5805
I3
sS'awarding'
p5806
I1
sS'Officers'
p5807
I5
sS'framework'
p5808
I13
sS'recuserstudy'
p5809
I1
sS'commanding'
p5810
I1
sS'accumulate'
p5811
I3
sS'Statements'
p5812
I1
sS'instructions'
p5813
I63
sS'NCg0KDQoNCtec'
p5814
I1
sS'stated'
p5815
I1
sS'system.'
p5816
I5
sS'fully'
p5817
I2
sS'zXnteS'
p5818
I1
sS'level'
p5819
I9
sS'reservists'
p5820
I3
sS'capability'
p5821
I1
sS'Recruitment'
p5822
I4
sS'Council'
p5823
I2
sS'system?'
p5824
I1
sS'SAVE'
p5825
I1
sS'obligated'
p5826
I2
sS'referred'
p5827
I4
sS'heavy'
p5828
I1
sS'End'
p5829
I1
sS'pamper'
p5830
I1
sS'Rabin.'
p5831
I2
sS'generation'
p5832
I4
sS'proposals'
p5833
I4
sS'fees'
p5834
I6
sS'brother'
p5835
I1
sS'hashbs'
p5836
I3
sS'Shosh'
p5837
I2
sS'practitioner'
p5838
I7
sS'Reading'
p5839
I6
sS'event'
p5840
I21
sS'More'
p5841
I16
sS'Moshenberg'
p5842
I3
sS'//www.gmail.com'
p5843
I1
sS'Shavit'
p5844
I2
sS'join'
p5845
I19
sS'since'
p5846
I3
sS'publish'
p5847
I9
sS'nextstep'
p5848
I1
sS'PHONE'
p5849
I1
sS'zXlNeZ'
p5850
I1
sS'health'
p5851
I1
sS'7'
p5852
I1
sS'ddbdb'
p5853
I2
sS'issue'
p5854
I6
sS"spouses'"
p5855
I1
sS'bass'
p5856
I1
sS"parent's"
p5857
I1
sS'Plaza'
p5858
I8
sS'According'
p5859
I2
sS'labs'
p5860
I15
sS'reason'
p5861
I1
sS'base'
p5862
I8
sS'ask'
p5863
I18
sS'Transportation'
p5864
I3
sS'teach'
p5865
I3
sS'Availability'
p5866
I3
sS'Bloch'
p5867
I1
sS'asm'
p5868
I4
sS'thrown'
p5869
I1
sS'Magshimim'
p5870
I2
sS'Mond,'
p5871
I1
sS"building's"
p5872
I1
sS'thread'
p5873
I2
sS'People'
p5874
I1
sS'Boston'
p5875
I2
sS'Nature'
p5876
I2
sS'success'
p5877
I14
sS'Chomusia'
p5878
I1
sS'due'
p5879
I25
sS'family.'
p5880
I1
sS'heartbeat'
p5881
I1
sS'basement.'
p5882
I1
sS'undergo'
p5883
I1
sS'fallen'
p5884
I5
sS'Broc'
p5885
I1
sS'partnerships'
p5886
I1
sS"Intel's"
p5887
I1
sS'formulas'
p5888
I2
sS'probability'
p5889
I3
sS'feel'
p5890
I11
sS'relate'
p5891
I1
sS'shredding.'
p5892
I1
sS'Hugo'
p5893
I1
sS'Aranne'
p5894
I1
sS"Parkinson's"
p5895
I1
sS'h0OjBjbTsNCgltc'
p5896
I2
sS'preparation'
p5897
I4
sS'minutes.'
p5898
I2
sS'Reminder'
p5899
I3
sS'miss'
p5900
I1
sS'Hesder'
p5901
I1
sS'script'
p5902
I1
sS'Models'
p5903
I1
sS'eddb'
p5904
I3
sS'interviews'
p5905
I11
sS'wonderful'
p5906
I4
sS'Procrastination'
p5907
I5
sS'passed'
p5908
I1
sS'Debtors'
p5909
I1
sS'on-site'
p5910
I1
sS'Caspi'
p5911
I13
sS'photographing'
p5912
I1
sS'store'
p5913
I2
sS'Cummings'
p5914
I16
sS'vision.'
p5915
I1
sS'group.'
p5916
I2
sS'tfi'
p5917
I2
sS'points.'
p5918
I1
sS'hcmdpbi'
p5919
I4
sS'recursively'
p5920
I1
sS'Companies'
p5921
I1
sS'Experis'
p5922
I2
sS'cyber'
p5923
I13
sS'translation'
p5924
I1
sS'Road'
p5925
I1
sS'world-renowned'
p5926
I1
sS'financing'
p5927
I2
sS'self-awareness'
p5928
I1
sS'kindly'
p5929
I3
sS'Successfully'
p5930
I4
sS'collaborations'
p5931
I1
sS'double'
p5932
I3
sS'instruction'
p5933
I5
sS'aims'
p5934
I2
sS'aee0df'
p5935
I2
sS'Semester'
p5936
I2
sS'uRW'
p5937
I1
sS'interview,'
p5938
I1
sS'LerGO'
p5939
I1
sS'interview.'
p5940
I10
sS'toward'
p5941
I1
sS'normal'
p5942
I3
sS'motivation'
p5943
I5
sS'outstanding'
p5944
I15
sS'vcmcv'
p5945
I1
sS'God'
p5946
I1
sS'urgently'
p5947
I1
sS'Peace'
p5948
I6
sS'needs'
p5949
I3
sS'Regions'
p5950
I1
sS'Window'
p5951
I1
sS'decomposition'
p5952
I1
sS'Aviv,'
p5953
I3
sS'sentences'
p5954
I1
sS'eUINeR'
p5955
I1
sS'concentration'
p5956
I1
sS'organs'
p5957
I1
sS'option'
p5958
I722
sS'institution.'
p5959
I1
sS'zaXpl'
p5960
I1
sS'Users'
p5961
I2
sS'globe.'
p5962
I2
sS'something'
p5963
I2
sS'Price'
p5964
I2
sS'shabtaia'
p5965
I1
sS'officers'
p5966
I8
sS'Graduates'
p5967
I4
sS'lit'
p5968
I7
sS'information:'
p5969
I1
sS'Viewing'
p5970
I10
sS'Germany'
p5971
I2
sS'chairman'
p5972
I4
sS'Graduated'
p5973
I1
sS'efa'
p5974
I4
sS'0de'
p5975
I2
sS'Tsuriel'
p5976
I2
sS'With'
p5977
I4
sS'0da'
p5978
I2
sS'Xptei'
p5979
I1
sS'towards'
p5980
I9
sS'electric'
p5981
I3
sS'fXmdedINeV'
p5982
I1
sS'quote'
p5983
I1
sS'Regst'
p5984
I2
sS'0efd'
p5985
I4
sS'reach'
p5986
I1
sS'workshops.'
p5987
I2
sS'Threshold'
p5988
I4
sS'Chief'
p5989
I1
sS'excels'
p5990
I1
sS"Rokobtz'in"
p5991
I1
sS'position'
p5992
I19
sS'Aviva'
p5993
I2
sS'alpha'
p5994
I1
sS'The'
p5995
I808
sS"Ze'elim"
p5996
I1
sS'approved'
p5997
I6
sS'salary'
p5998
I18
sS'Bridge'
p5999
I3
sS'Experiential'
p6000
I2
sS'Development.'
p6001
I1
sS'Secretariat.'
p6002
I1
sS'mobile'
p6003
I10
sS'clear'
p6004
I2
sS'Belizovsky'
p6005
I2
sS'bXkCDXoteR'
p6006
I1
sS'0d0'
p6007
I2
sS'traditional'
p6008
I1
sS'security.'
p6009
I2
sS'part-time'
p6010
I2
sS'electrons'
p6011
I1
sS"Guardian's"
p6012
I1
sS'deans'
p6013
I1
sS'ZnJhbWU'
p6014
I1
sS'OTUlZDclOTIlZDclOTUlMjAlZDclOTYlZDclOTUlMjAlZDclOTQlZDclOTMlZDclYTglZDclOWEl'
p6015
I1
sS'usual'
p6016
I9
sS'physics'
p6017
I2
sS'institutions'
p6018
I9
sS'email.'
p6019
I2
sS'phenomenon'
p6020
I1
sS'commas'
p6021
I1
sS'ET'
p6022
I1
sS'registers'
p6023
I2
sS'email:'
p6024
I1
sS'uniform'
p6025
I1
sS'e-career'
p6026
I1
sS'eUDQoNCg0KDQrXodeY'
p6027
I1
sS'completion'
p6028
I22
sS'talgrin'
p6029
I1
sS'rocket'
p6030
I1
sS'northern'
p6031
I2
sS'bfd'
p6032
I2
sS'French'
p6033
I5
sS'medicine,'
p6034
I3
sS'responses'
p6035
I1
sS'JVP'
p6036
I2
sS'Office,'
p6037
I1
sS'IAI'
p6038
I7
sS'Notes'
p6039
I2
sS'kind'
p6040
I4
sS'register.'
p6041
I1
sS'Threading'
p6042
I1
sS'While'
p6043
I2
sS'b'
p6044
I208
sS'Saxophone'
p6045
I1
sS'procrastination'
p6046
I2
sS'competing'
p6047
I1
sS'during'
p6048
I100
sS'shreds.'
p6049
I1
sS'Counselor'
p6050
I1
sS'emails'
p6051
I2
sS'EZchip'
p6052
I2
sS'guilt.'
p6053
I1
sS'Conditional'
p6054
I1
sS'adhering'
p6055
I1
sS'Xb'
p6056
I1
sS'J.'
p6057
I1
sS'interim'
p6058
I1
sS'filled'
p6059
I1
sS'recommendations'
p6060
I5
sS'x'
p6061
I7
sS'haWxTdHlsZTIxDQoJe'
p6062
I1
sS'Farhat'
p6063
I1
sS'Networks'
p6064
I2
sS'scanning'
p6065
I2
sS'art'
p6066
I1
sS'choreographer'
p6067
I1
sS'Tova'
p6068
I4
sS'intelligence'
p6069
I5
sS'advertised'
p6070
I2
sS'arrives'
p6071
I1
sS'culture'
p6072
I2
sS'fund,'
p6073
I1
sS'are'
p6074
I444
sS'1,000,000'
p6075
I1
sS'close'
p6076
I8
sS'eHBvcnQtb'
p6077
I1
sS'TXptei'
p6078
I1
sS'recording'
p6079
I1
sS'threats'
p6080
I1
sS'Fairgrounds.'
p6081
I1
sS'libraries'
p6082
I1
sS'plush'
p6083
I1
sS'won'
p6084
I2
sS'years,'
p6085
I4
sS'Counter-Terrorism'
p6086
I1
sS'years.'
p6087
I6
sS'assistants'
p6088
I2
sS'Nanotechnology'
p6089
I1
sS'conditions'
p6090
I20
sS'supposed'
p6091
I4
sS'recently'
p6092
I3
sS'creating'
p6093
I3
sS'missing'
p6094
I1
sS'zipped'
p6095
I1
sS'sole'
p6096
I1
sS'Fax'
p6097
I10
sS'days.'
p6098
I3
sS'days,'
p6099
I1
sS'Yaela'
p6100
I1
sS'mentoring'
p6101
I13
sS'hotkey'
p6102
I1
sS'zipper'
p6103
I1
sS'This'
p6104
I141
sS'AND'
p6105
I1
sS'both'
p6106
I29
sS'isedep'
p6107
I2
sS'work.'
p6108
I7
sS'attainment'
p6109
I1
sS'Hard'
p6110
I3
sS'remembers'
p6111
I1
sS'above.'
p6112
I4
sS'above,'
p6113
I1
sS'forgotten'
p6114
I1
sS'reply'
p6115
I81
sS'Building,'
p6116
I1
sS'experimental'
p6117
I2
sS'Building.'
p6118
I7
sS'reside'
p6119
I1
sS'sloth'
p6120
I1
sS'TMS'
p6121
I1
sS'Affairs'
p6122
I2
sS'reasons'
p6123
I1
sS'Haviv'
p6124
I1
sS'pY'
p6125
I1
sS'000d'
p6126
I2
sS'header'
p6127
I1
sS'regulated'
p6128
I1
sS'Online'
p6129
I2
sS'Npdf'
p6130
I13
sS'pm.'
p6131
I1
sS'Authorization'
p6132
I2
sS'lecturers'
p6133
I3
sS'java'
p6134
I2
sS'zXqtee'
p6135
I1
sS'stamp'
p6136
I3
sS'Changes'
p6137
I20
sS'cbba'
p6138
I2
sS'work:'
p6139
I1
sS'strategy'
p6140
I2
sS'Most'
p6141
I3
sS'reduction'
p6142
I1
sS'Protection'
p6143
I2
sS'Shaked'
p6144
I4
sS'pg'
p6145
I1
sS'maintenance'
p6146
I6
sS'experience.'
p6147
I3
sS'collected'
p6148
I1
sS'adb'
p6149
I4
sS'ph'
p6150
I1
sS'Today,'
p6151
I3
sS'Elite'
p6152
I3
sS'Amuta'
p6153
I3
sS'Instructional'
p6154
I5
sS'0000'
p6155
I4
sS'success.'
p6156
I5
sS'Head'
p6157
I18
sS'citizen'
p6158
I1
sS'Graduation'
p6159
I1
sS'N'
p6160
I6
sS'Academic'
p6161
I7
sS'lives'
p6162
I12
sS'disruptive'
p6163
I1
sS'folklore'
p6164
I1
sS'labs.'
p6165
I1
sS'Dean'
p6166
I281
sS'000.'
p6167
I2
sS'surveys'
p6168
I2
sS'developments'
p6169
I1
sS'Software'
p6170
I18
sS'plants'
p6171
I1
sS'Late'
p6172
I1
sS'EARN'
p6173
I1
sS'China.'
p6174
I2
sS'look'
p6175
I26
sS'frozen'
p6176
I1
sS'nXmiDXnNei'
p6177
I1
sS'twenty'
p6178
I1
sS'Ntmrtz'
p6179
I1
sS'pace'
p6180
I1
sS'while'
p6181
I4
sS'Kobi'
p6182
I13
sS'behavior'
p6183
I1
sS'shift'
p6184
I8
sS'mentally'
p6185
I1
sS'fleet'
p6186
I1
sS'guide'
p6187
I4
sS'loop'
p6188
I1
sS'lecturer.'
p6189
I3
sS'Industries'
p6190
I7
sS'City'
p6191
I2
sS'Italy'
p6192
I4
sS'00f'
p6193
I2
sS'laboratories.'
p6194
I1
sS'Corps.'
p6195
I2
sS'Situations'
p6196
I1
sS'cleaned'
p6197
I1
sS'dbed'
p6198
I2
sS'Yeruham,'
p6199
I1
sS'holiday,'
p6200
I2
sS'Tim'
p6201
I1
sS'holiday.'
p6202
I1
sS'bcde0'
p6203
I2
sS'ready'
p6204
I3
sS'reception.'
p6205
I1
sS'examine'
p6206
I5
sS'Esther'
p6207
I1
sS'Thread'
p6208
I16
sS'grant'
p6209
I16
sS'lengths'
p6210
I1
sS'ImVkaXQiIHNw'
p6211
I1
sS'FAQ'
p6212
I3
sS'zXlNeq'
p6213
I1
sS'FAT'
p6214
I1
sS'Understanding'
p6215
I7
sS'checking'
p6216
I2
sS'delicious'
p6217
I2
sS'MGNtOw0KCW'
p6218
I1
sS'9'
p6219
I12
sS'Meir'
p6220
I12
sS'composition'
p6221
I7
sS'conflict'
p6222
I1
sS'here.'
p6223
I2
sS'sell'
p6224
I1
sS'Shabbat'
p6225
I12
sS'used'
p6226
I9
sS'temporary'
p6227
I2
sS'cartridge'
p6228
I5
sS'accordingly.'
p6229
I2
sS'00.'
p6230
I3
sS'bgumanagement'
p6231
I1
sS'interpersonal'
p6232
I4
sS'domains'
p6233
I1
sS'000'
p6234
I15
sS'moving'
p6235
I1
sS'user'
p6236
I5
sS'AnnouncementsView'
p6237
I1
sS'Com'
p6238
I1
sS'luLXJpZ'
p6239
I2
sS'PGh0dHBzOi'
p6240
I1
sS'lower'
p6241
I1
sS'registered.'
p6242
I1
sS'database'
p6243
I16
sS'try'
p6244
I2
sS'people.'
p6245
I2
sS'Ed'
p6246
I1
sS'scholarships,'
p6247
I1
sS'analysis'
p6248
I6
sS'without'
p6249
I15
sS'edge'
p6250
I1
sS'forms,'
p6251
I4
sS'offers.'
p6252
I1
sS'items:'
p6253
I1
sS'stating'
p6254
I1
sS'Officer'
p6255
I2
sS'netivim'
p6256
I1
sS'friendship'
p6257
I1
sS'abilities'
p6258
I4
sS'plum'
p6259
I1
sS'incorrect'
p6260
I3
sS'Mifal'
p6261
I3
sS'Permanent'
p6262
I2
sS"We're"
p6263
I3
sS'questions'
p6264
I35
sS'Internet'
p6265
I7
sS'Jvc'
p6266
I1
sS'useful'
p6267
I1
sS'hjn'
p6268
I1
sS'Financial'
p6269
I5
sS'sub-expressions'
p6270
I1
sS'profitable'
p6271
I3
sS'Arab'
p6272
I7
sS'loading'
p6273
I1
sS'helping'
p6274
I3
sS'$'
p6275
I3
sS'DQoJbWFyZ'
p6276
I3
sS'TXmdeq'
p6277
I1
sS'guaranteed'
p6278
I1
sS'prices.'
p6279
I1
sS'addressespace'
p6280
I2
sS'exhibition'
p6281
I2
sS'Hands'
p6282
I3
sS'born'
p6283
I3
sS'e0d'
p6284
I2
sS'XqdenPw0K'
p6285
I1
sS'remaining'
p6286
I3
sS'e0a'
p6287
I3
sS'[IMG]'
p6288
I16
sS'...'
p6289
I1
sS'customers'
p6290
I1
sS'chaired'
p6291
I1
sS'Last'
p6292
I7
sS'Arad'
p6293
I1
sS'fieldwork'
p6294
I1
sS'Sigamit'
p6295
I3
sS'Air'
p6296
I1
sS'finding'
p6297
I1
sS'lpaster'
p6298
I2
sS'Paratroopers'
p6299
I1
sS'studio'
p6300
I1
sS'Aid'
p6301
I19
sS"Israel's"
p6302
I2
sS'efb'
p6303
I2
sS'kerenmaccabimpage'
p6304
I1
sS'inviting'
p6305
I1
sS'submission'
p6306
I28
sS'Computing'
p6307
I2
sS'0dc'
p6308
I6
sS'e00'
p6309
I4
sS'separately'
p6310
I4
sS'one-week'
p6311
I2
sS'uMQ0KCXtz'
p6312
I1
sS'Ayelet'
p6313
I3
sS'Learning'
p6314
I12
sS'0ed'
p6315
I3
sS'0ee'
p6316
I2
sS'E-graduate'
p6317
I1
sS'0ea'
p6318
I2
sS'eec'
p6319
I2
sS'Therefore'
p6320
I1
sS'mathematical'
p6321
I4
sS'sketch'
p6322
I1
sS'XTREAM'
p6323
I1
sS'creation'
p6324
I1
sS'some'
p6325
I4
sS'urgent'
p6326
I1
sS'trends'
p6327
I2
sS'economic'
p6328
I9
sS'Netaneli'
p6329
I1
sS'newsletter'
p6330
I1
sS'Email'
p6331
I70
sS'Stand-up'
p6332
I1
sS'Economy'
p6333
I1
sS'delivered'
p6334
I2
sS'women.'
p6335
I3
sS'Readings'
p6336
I1
sS'competitions'
p6337
I3
sS'programmers'
p6338
I1
sS'approves'
p6339
I1
sS"Here's"
p6340
I1
sS'Chagim'
p6341
I1
sS'inconvenience'
p6342
I1
sS'run'
p6343
I10
sS'booklet'
p6344
I2
sS'jumps'
p6345
I1
sS'processing'
p6346
I2
sS'lZDclOWMlZDcl'
p6347
I1
sS'Equal'
p6348
I1
sS'step'
p6349
I1
sS'assists'
p6350
I1
sS'Command'
p6351
I44
sS'cmwoI'
p6352
I1
sS'Yael'
p6353
I4
sS'Strategies'
p6354
I3
sS'Gilad'
p6355
I1
sS'abroad'
p6356
I2
sS'Comment'
p6357
I1
sS'works'
p6358
I13
sS'volunteering'
p6359
I1
sS'Communications'
p6360
I8
sS'bzsNCgltYXJnaW'
p6361
I1
sS'entrepreneurs'
p6362
I1
sS'completing'
p6363
I5
sS'plaza'
p6364
I1
sS'competition.'
p6365
I1
sS'Lior'
p6366
I1
sS'simulation'
p6367
I1
sS'Following'
p6368
I3
sS'Directing'
p6369
I2
sS'range'
p6370
I5
sS'bgu'
p6371
I1665
sS'Committee'
p6372
I15
sS'help.'
p6373
I1
sS'Reference'
p6374
I2
sS'bezeq'
p6375
I1
sS'seeing'
p6376
I4
sS'Eli'
p6377
I2
sS'significant'
p6378
I3
sS'd0c00'
p6379
I1
sS'within'
p6380
I9
sS'Vocational'
p6381
I1
sS'Their'
p6382
I1
sS'Msh'
p6383
I1
sS'Ruth'
p6384
I3
sS'file.'
p6385
I8
sS'Radic.'
p6386
I1
sS'Victims'
p6387
I2
sS'entitlement'
p6388
I1
sS'Normal'
p6389
I2
sS'cz0iV'
p6390
I1
sS'fast'
p6391
I5
sS'fd0'
p6392
I7
sS'consultation'
p6393
I4
sS'Every'
p6394
I6
sS'Mules'
p6395
I1
sS'forces.'
p6396
I1
sS'forces,'
p6397
I1
sS'files'
p6398
I12
sS'Bezeq'
p6399
I2
sS'Development,'
p6400
I3
sS'registered'
p6401
I19
sS'criteria'
p6402
I7
sS'Management,'
p6403
I1
sS'applicable'
p6404
I1
sS'parents.'
p6405
I1
sS'properly'
p6406
I2
sS'game'
p6407
I1
sS'Ltd.'
p6408
I10
sS'filed'
p6409
I1
sS'junior'
p6410
I1
sS'ceremonies'
p6411
I8
sS'info'
p6412
I3
sS'section.'
p6413
I1
sS'fdc'
p6414
I4
sS'consist'
p6415
I1
sS'fdf'
p6416
I2
sS'call.'
p6417
I1
sS'principles.'
p6418
I1
sS'growth'
p6419
I1
sS'cautiously'
p6420
I1
sS'today'
p6421
I17
sS'etc.'
p6422
I11
sS'Design,'
p6423
I1
sS'Efraim'
p6424
I1
sS'Risk'
p6425
I1
sS'mediation'
p6426
I1
sS'conditions,'
p6427
I2
sS'visit:'
p6428
I1
sS'shortcuts'
p6429
I2
sS"Department's"
p6430
I11
sS'accessibility'
p6431
I1
sS'Ice'
p6432
I1
sS'Aviv'
p6433
I12
sS'visit,'
p6434
I1
sS'problem,'
p6435
I1
sS'reservoirs'
p6436
I1
sS'user.'
p6437
I1
sS'Ben'
p6438
I85
sS'Establishment'
p6439
I1
sS'bWwiIHhtbG'
p6440
I1
sS'knowledge.'
p6441
I3
sS'Lubner'
p6442
I3
sS'DEGETEL'
p6443
I1
sS'labs,'
p6444
I1
sS'Subscribe'
p6445
I6
sS'objection'
p6446
I1
sS'ea0c'
p6447
I1
sS'sessions'
p6448
I4
sS'HaSharon'
p6449
I1
sS'faculties.'
p6450
I2
sS'A0'
p6451
I1
sS'faculties,'
p6452
I1
sS'department.'
p6453
I6
sS'edfe'
p6454
I2
sS'dc0'
p6455
I4
sS'income'
p6456
I3
sS'department'
p6457
I59
sS"faculties'"
p6458
I1
sS'Heinrich'
p6459
I1
sS'TA'
p6460
I3
sS'AA'
p6461
I3
sS'FudGVkLmNvLmlsLz'
p6462
I1
sS'Required'
p6463
I7
sS'users'
p6464
I2
sS'Society,'
p6465
I1
sS'treatments'
p6466
I2
sS'Tel.'
p6467
I1
sS'JpdHk'
p6468
I3
sS'AM'
p6469
I4
sS'mYW'
p6470
I1
sS'Language.'
p6471
I1
sS'regulations'
p6472
I4
sS'Tsabari'
p6473
I1
sS'meaning'
p6474
I3
sS'reservation'
p6475
I1
sS'Union.'
p6476
I2
sS'XmdeT'
p6477
I1
sS'structure'
p6478
I2
sS'XmdeV'
p6479
I1
sS'Ac'
p6480
I28
sS'news-effective'
p6481
I1
sS'e'
p6482
I217
sS'Ad'
p6483
I2
sS'vice'
p6484
I1
sS'night,'
p6485
I1
sS'required'
p6486
I40
sS'youtube'
p6487
I2
sS'departments'
p6488
I7
sS'An'
p6489
I19
sS'depth'
p6490
I1
sS'nnlabsec'
p6491
I1
sS'At'
p6492
I14
sS'Hapoalim'
p6493
I1
sS'requires'
p6494
I9
sS'orders'
p6495
I5
sS'once'
p6496
I7
sS'cdd'
p6497
I4
sS'0fb'
p6498
I3
sS'edf'
p6499
I2
sS'edd'
p6500
I1
sS'ede'
p6501
I1
sS'Monthly'
p6502
I2
sS'issued'
p6503
I2
sS'Time'
p6504
I6
sS'gg'
p6505
I1
sS'Archive'
p6506
I1
sS'Bureau'
p6507
I1
sS'Economical'
p6508
I1
sS'edu'
p6509
I2
sS'go'
p6510
I11
sS'Ramadan,'
p6511
I1
sS'gl'
p6512
I24
sS'contributions'
p6513
I1
sS'Deannet'
p6514
I1
sS'cda'
p6515
I8
sS'Tuesday.'
p6516
I1
sS'00bacf'
p6517
I4
sS'Tuesday,'
p6518
I20
sS'asphalt'
p6519
I1
sS'Returning'
p6520
I4
sS'disposal'
p6521
I1
sS'Nog'
p6522
I1
sS'Noa'
p6523
I4
sS'Award'
p6524
I3
sS'suits'
p6525
I1
sS'languages'
p6526
I3
sS'Joint'
p6527
I2
sS'position.'
p6528
I1
sS'Bet'
p6529
I1
sS'position,'
p6530
I1
sS'Universitys'
p6531
I2
sS'exit,'
p6532
I1
sS'Now'
p6533
I2
sS'friendly'
p6534
I2
sS'pay'
p6535
I4
sS'Conducting'
p6536
I1
sS'issue.'
p6537
I1
sS'Canadian'
p6538
I4
sS'N0ExMF0'
p6539
I1
sS'Mrs.'
p6540
I2
sS'wave'
p6541
I2
sS'0f0'
p6542
I2
sS'wishes'
p6543
I9
sS'facebook'
p6544
I57
sS'chooses'
p6545
I1
sS'more.'
p6546
I3
sS'Acquisition'
p6547
I1
sS'No.'
p6548
I9
sS'University.'
p6549
I6
sS'InVy'
p6550
I1
sS'University,'
p6551
I5
sS'positions'
p6552
I15
sS'button'
p6553
I3
sS'deals'
p6554
I2
sS'Sima'
p6555
I2
sS"week's"
p6556
I1
sS'Grades.'
p6557
I1
sS'Partner'
p6558
I1
sS'Simh'
p6559
I1
sS'Tuesdays'
p6560
I4
sS'noted'
p6561
I2
sS'Z0LWNvbTp'
p6562
I1
sS'Index'
p6563
I3
sS'Functions'
p6564
I1
sS'cff'
p6565
I3
sS'cfd'
p6566
I4
sS'cfe'
p6567
I2
sS'cfb'
p6568
I3
sS'Brief'
p6569
I1
sS'zb'
p6570
I4
sS'cfa'
p6571
I4
sS'jump'
p6572
I3
sS'State'
p6573
I4
sS'Wilhelm'
p6574
I1
sS'booth'
p6575
I1
sS'download'
p6576
I14
sS'Teaching'
p6577
I14
sS'honors'
p6578
I3
sS'Staffing'
p6579
I1
sS'Lehavim,'
p6580
I1
sS'bdd'
p6581
I5
sS'Lehavim.'
p6582
I1
sS'Submission'
p6583
I6
sS'bdc'
p6584
I3
sS'Governors'
p6585
I1
sS'Bezeq.'
p6586
I1
sS'cell'
p6587
I4
sS'Deloya'
p6588
I1
sS'experiment'
p6589
I11
sS'Link'
p6590
I16
sS'oZWFkPg0K'
p6591
I1
sS'attire'
p6592
I1
sS'Former'
p6593
I3
sS'Serchio'
p6594
I8
sS'bfc'
p6595
I3
sS'focuses'
p6596
I2
sS'chose'
p6597
I1
sS'elect'
p6598
I1
sS'monetary'
p6599
I1
sS'desired'
p6600
I7
sS'Conducted'
p6601
I2
sS'vbW'
p6602
I1
sS'expansion'
p6603
I1
sS'Published'
p6604
I1
sS'Disorder'
p6605
I1
sS'cf0'
p6606
I3
sS'arrive'
p6607
I7
sS'gosouth'
p6608
I1
sS"cVidya's"
p6609
I1
sS'Likewise'
p6610
I1
sS'Tequila'
p6611
I1
sS'larger'
p6612
I1
sS'Back'
p6613
I1
sS'Audiocodes'
p6614
I1
sS'dosage'
p6615
I1
sS'Materials'
p6616
I3
sS'products'
p6617
I6
sS'Arabic'
p6618
I1
sS'cad'
p6619
I2
sS'relation'
p6620
I1
sS'examining'
p6621
I1
sS'up-to-date'
p6622
I2
sS'inbound'
p6623
I1
sS'addresses'
p6624
I1
sS'Sharon'
p6625
I2
sS'win'
p6626
I3
sS'Assistance'
p6627
I14
sS'manage'
p6628
I1
sS"Sa'id"
p6629
I1
sS'HAIS'
p6630
I2
sS'addressed'
p6631
I5
sS'Safety'
p6632
I4
sS'apply'
p6633
I25
sS'singing'
p6634
I1
sS'cloud'
p6635
I3
sS'wix'
p6636
I2
sS'fef'
p6637
I3
sS'fed'
p6638
I2
sS'fee'
p6639
I9
sS'feb'
p6640
I4
sS'fec'
p6641
I9
sS'&'
p6642
I7
sS'doodle'
p6643
I1
sS'Qualifications'
p6644
I4
sS'few'
p6645
I8
sS'examination'
p6646
I20
sS'f00'
p6647
I2
sS'subsidized'
p6648
I5
sS'vehicle'
p6649
I1
sS'timetable'
p6650
I1
sS'ceremony.'
p6651
I5
sS'milgot'
p6652
I1
sS'started'
p6653
I1
sS'becomes'
p6654
I2
sS'efcf'
p6655
I2
sS'Wednesday'
p6656
I58
sS'missile'
p6657
I3
sS'Claire'
p6658
I6
sS'dGJvZHk'
p6659
I1
sS'brochure'
p6660
I6
sS'Guy'
p6661
I84
sS'disabling'
p6662
I1
sS'examination,'
p6663
I1
sS'women'
p6664
I19
sS'f0f'
p6665
I2
sS'f0a'
p6666
I2
sS'announcing'
p6667
I1
sS'us.'
p6668
I5
sS'Netivot'
p6669
I1
sS'donut'
p6670
I6
sS'fe0'
p6671
I2
sS'Vote'
p6672
I2
sS'meet'
p6673
I37
sS'ALU'
p6674
I2
sS'10:30'
p6675
I1
sS'performed'
p6676
I5
sS'control'
p6677
I11
sS'Israeli'
p6678
I5
sS'activities.'
p6679
I1
sS'Dean,'
p6680
I6
sS'links'
p6681
I4
sS'PayPal'
p6682
I2
sS'bGNsYXNzDQoJe'
p6683
I1
sS'pteQINei'
p6684
I1
sS'Mr.'
p6685
I12
sS'carrot'
p6686
I1
sS'recognized'
p6687
I3
sS'tab'
p6688
I1
sS'offense'
p6689
I2
sS'serial'
p6690
I1
sS'made'
p6691
I13
sS'Hashana'
p6692
I1
sS'Wireless'
p6693
I1
sS'memorize'
p6694
I1
sS'immigrants'
p6695
I2
sS'poetry'
p6696
I1
sS'located'
p6697
I11
sS'0NCkBwYWdlIFdvcmRTZWN0aW'
p6698
I1
sS'Tene.'
p6699
I2
sS'assistive'
p6700
I1
sS'A0c'
p6701
I1
sS'Opportunity'
p6702
I2
sS'Lobby'
p6703
I2
sS'http://www.modle.blogspot.com'
p6704
I5
sS'circular'
p6705
I3
sS'tension'
p6706
I4
sS'express'
p6707
I4
sS'Israel.'
p6708
I6
sS'attend'
p6709
I7
sS'Israel,'
p6710
I2
sS'franchise'
p6711
I1
sS'link:'
p6712
I13
sS'Specific'
p6713
I1
sS'independent'
p6714
I1
sS'abuse'
p6715
I1
sS'Allot'
p6716
I2
sS'men'
p6717
I22
sS'link,'
p6718
I1
sS'Careercenterbgu'
p6719
I1
sS'link.'
p6720
I5
sS'values.'
p6721
I1
sS'daycare'
p6722
I4
sS'light'
p6723
I14
sS'0LWZhY'
p6724
I1
sS'Marcel'
p6725
I1
sS'object-oriented'
p6726
I1
sS'kaitz'
p6727
I1
sS'courage'
p6728
I1
sS'Email:'
p6729
I3
sS'participated'
p6730
I2
sS'six-year'
p6731
I1
sS'secured'
p6732
I1
sS'weeks.'
p6733
I1
sS'eWINec'
p6734
I2
sS'DQpwLmV'
p6735
I1
sS'basement'
p6736
I10
sS'Pieterberg,'
p6737
I1
sS'Speakers'
p6738
I1
sS'Manza'
p6739
I1
sS'own'
p6740
I2
sS'including'
p6741
I30
sS'looks'
p6742
I4
sS'gender-specific'
p6743
I2
sS'mentioned'
p6744
I1
sS'Final'
p6745
I1
sS'Psychology'
p6746
I7
sS'Body'
p6747
I1
sS'1'
p6748
I8
sS'VfaWZyYW'
p6749
I1
sS'Recently'
p6750
I1
sS'Resume'
p6751
I1
sS'notebooks'
p6752
I2
sS'him'
p6753
I4
sS'registration,'
p6754
I3
sS'registration.'
p6755
I2
sS'permanent'
p6756
I5
sS'restart'
p6757
I1
sS'Multiply'
p6758
I1
sS'covered'
p6759
I1
sS'imbalance'
p6760
I1
sS'article.'
p6761
I1
sS'0pINeV'
p6762
I1
sS'world,'
p6763
I2
sS'Tickets'
p6764
I1
sS'Computerization'
p6765
I1
sS'Goldberger'
p6766
I4
sS'VjdGlvbjENCgl'
p6767
I1
sS'Car'
p6768
I1
sS'Adar'
p6769
I1
sS'Fringe'
p6770
I3
sS'Two'
p6771
I2
sS'related'
p6772
I14
sS'understood'
p6773
I1
sS'hands'
p6774
I4
sS'front'
p6775
I20
sS'YXV0bzsNCgltYXJnaW'
p6776
I2
sS'Writing'
p6777
I5
sS'Dear'
p6778
I56
sS'FIRST'
p6779
I2
sS'NCjx0YWJsZSBjbGFzcz0iTXNvTm'
p6780
I1
sS'Summer'
p6781
I4
sS'entitling'
p6782
I1
sS'technology.'
p6783
I2
sS'edit'
p6784
I19
sS'university'
p6785
I45
sS'dropboxusercontent'
p6786
I1
sS'postgraduate'
p6787
I2
sS'Therefore,'
p6788
I8
sS'rockets'
p6789
I3
sS'alike'
p6790
I1
sS'SoaHoPqw'
p6791
I2
sS'Use'
p6792
I1
sS'|'
p6793
I4
sS'Subject'
p6794
I1
sS'Statistics'
p6795
I1
sS'attachments'
p6796
I331
sS'Seal'
p6797
I2
sS'Hanukkah,'
p6798
I1
sS'vacation,'
p6799
I1
sS'Malicious'
p6800
I1
sS'Representatives'
p6801
I1
sS'Goldbergs'
p6802
I1
sS'Next'
p6803
I9
sS'Ambitious'
p6804
I1
sS'ec0'
p6805
I2
sS'approved.'
p6806
I1
sS'relates'
p6807
I1
sS'special'
p6808
I13
sS'out'
p6809
I49
sS'respects'
p6810
I1
sS'entertainment'
p6811
I1
sS'ministry,'
p6812
I1
sS'cmsprod'
p6813
I2
sS'vcm'
p6814
I2
sS'Command,'
p6815
I6
sS'time,'
p6816
I3
sS'time.'
p6817
I10
sS'bf0'
p6818
I4
sS'yesterday,'
p6819
I1
sS'Pinchas'
p6820
I1
sS'Beginning'
p6821
I1
sS'tests.'
p6822
I1
sS'tests,'
p6823
I1
sS'fun'
p6824
I1
sS'ecd'
p6825
I2
sS'Haifa'
p6826
I3
sS'ecb'
p6827
I2
sS'transition.'
p6828
I1
sS'eco'
p6829
I1
sS'society.'
p6830
I1
sS'activity'
p6831
I50
sS'caregivers'
p6832
I1
sS'zb0h'
p6833
I1
sS"psychologists'"
p6834
I6
sS'aceda'
p6835
I2
sS'vacations'
p6836
I3
sS'attachment.'
p6837
I1
sS'Full-Size'
p6838
I1
sS'Finance'
p6839
I2
sS'resumed'
p6840
I3
sS'dormitories'
p6841
I5
sS'days'
p6842
I27
sS'hostile'
p6843
I2
sS'g'
p6844
I6
sS'ReadToken'
p6845
I1
sS'determining'
p6846
I2
sS'Topics'
p6847
I4
sS'efebf'
p6848
I3
sS'follows.'
p6849
I1
sS'Discount'
p6850
I5
sS'times'
p6851
I11
sS'RlZmF'
p6852
I1
sS'conversation'
p6853
I4
sS'4th'
p6854
I1
sS'resumes'
p6855
I2
sS'timed'
p6856
I1
sS'locating'
p6857
I2
sS'Rav'
p6858
I1
sS'Soortz'
p6859
I1
sS'exam'
p6860
I15
sS'SaaS'
p6861
I2
sS'Managing'
p6862
I1
sS'apps'
p6863
I1
sS'situations.'
p6864
I1
sS'situations,'
p6865
I1
sS'periphery.'
p6866
I1
sS'cardiac'
p6867
I1
sS'Saal'
p6868
I1
sS'Electrical'
p6869
I2
sS'activity,'
p6870
I2
sS'activity.'
p6871
I4
sS'Tankman'
p6872
I1
sS'quality'
p6873
I6
sS'XXqdek'
p6874
I1
sS"you're"
p6875
I1
sS'ASP'
p6876
I1
sS'Shani'
p6877
I67
sS'publication'
p6878
I5
sS'practitioners'
p6879
I3
sS'Funds'
p6880
I1
sS'Shana'
p6881
I4
sS'relations'
p6882
I4
sS'priority'
p6883
I9
sS'attach'
p6884
I11
sS'attack'
p6885
I2
sS'Automated'
p6886
I1
sS'Saturday.'
p6887
I1
sS'final'
p6888
I12
sS'Success'
p6889
I4
sS'Fox'
p6890
I1
sS'Ki'
p6891
I1
sS'exactly'
p6892
I3
sS'Alumni'
p6893
I1
sS'lists'
p6894
I1
sS'R'
p6895
I9
sS'suitability'
p6896
I5
sS'wanted'
p6897
I95
sS"pensioners'"
p6898
I1
sS'eltel'
p6899
I3
sS'green-colored'
p6900
I1
sS'Mishkin'
p6901
I17
sS'beb'
p6902
I2
sS'bed'
p6903
I5
sS'bee'
p6904
I2
sS'Fund.'
p6905
I3
sS'therefore,'
p6906
I1
sS'iZW'
p6907
I1
sS'Oval'
p6908
I1
sS'providing'
p6909
I3
sS'Information'
p6910
I45
sS'Highlights'
p6911
I1
sS'Veteran'
p6912
I7
sS'intention.'
p6913
I1
sS'Other'
p6914
I2
sS'Yaakov'
p6915
I4
sS'need'
p6916
I21
sS'north'
p6917
I1
sS'Ephraim'
p6918
I1
sS'lecture.'
p6919
I1
sS'70'
p6920
I2
sS'Development'
p6921
I95
sS'afraid'
p6922
I2
sS'Docs'
p6923
I1
sS'database.'
p6924
I2
sS'After'
p6925
I6
sS'able'
p6926
I15
sS'www.macabim.org'
p6927
I1
sS'Registers'
p6928
I1
sS'Chairman,'
p6929
I1
sS'which'
p6930
I82
sS'funds'
p6931
I1
sS'campus.'
p6932
I3
sS'campus,'
p6933
I1
sS'Ben-'
p6934
I2
sS'lecturer'
p6935
I3
sS'lectures'
p6936
I3
sS"bachelor's"
p6937
I4
sS'macro'
p6938
I3
sS'grading.'
p6939
I1
sS'collaboration'
p6940
I3
sS'November'
p6941
I3
sS'Solution'
p6942
I3
sS'connected'
p6943
I1
sS'but'
p6944
I32
sS'sb'
p6945
I3
sS'Moshe'
p6946
I19
sS'class'
p6947
I19
sS'Additiona'
p6948
I1
sS'High'
p6949
I15
sS'hungry.'
p6950
I1
sS'vZmZpY'
p6951
I1
sS'talk'
p6952
I10
sS'databases'
p6953
I12
sS'impression'
p6954
I1
sS'chip,'
p6955
I1
sS'BGG'
p6956
I2
sS'chances'
p6957
I7
sS'familiarity'
p6958
I2
sS'agreed'
p6959
I1
sS'anyway'
p6960
I2
sS'watch'
p6961
I8
sS'technician'
p6962
I7
sS'permits:'
p6963
I1
sS'planning'
p6964
I1
sS'procedure:'
p6965
I1
sS'Innovation'
p6966
I3
sS'possibilities'
p6967
I1
sS'soldiers'
p6968
I20
sS'fear'
p6969
I2
sS'Document'
p6970
I1
sS'Public'
p6971
I6
sS'lcyBOZXcgUm'
p6972
I1
sS'based'
p6973
I5
sS'winner'
p6974
I1
sS'specified'
p6975
I1
sS'Artillery'
p6976
I5
sS'bases'
p6977
I1
sS'candidates'
p6978
I9
sS'employee'
p6979
I2
sS'employed'
p6980
I1
sS'Shul'
p6981
I1
sS'thousands'
p6982
I3
sS'achieve'
p6983
I5
sS'Areas'
p6984
I1
sS'marvell'
p6985
I2
sS'Negev'
p6986
I210
sS'overall'
p6987
I1
sS'joint'
p6988
I8
sS'00:00,'
p6989
I3
sS'legitimate'
p6990
I1
sS'hostilities.'
p6991
I1
sS'entity'
p6992
I2
sS'procedures'
p6993
I2
sS'Italian'
p6994
I1
sS'gray'
p6995
I2
sS'processes'
p6996
I4
sS'trucks'
p6997
I2
sS'hiring'
p6998
I1
sS'megatrends'
p6999
I1
sS'qx'
p7000
I2
sS'married'
p7001
I14
sS'base,'
p7002
I1
sS'base.'
p7003
I1
sS'parents,'
p7004
I1
sS'she'
p7005
I2
sS'shrunk'
p7006
I2
sS'NIS'
p7007
I51
sS'view'
p7008
I78
sS'available'
p7009
I47
sS'CodeGeneration'
p7010
I4
sS'love.'
p7011
I1
sS'eba'
p7012
I2
sS'ebc'
p7013
I2
sS'Thinking'
p7014
I1
sS'Question'
p7015
I18
sS'Send'
p7016
I7
sS'immigrant'
p7017
I2
sS'reinforce'
p7018
I1
sS'officials'
p7019
I1
sS"students'"
p7020
I2
sS'operated'
p7021
I3
sS'this.'
p7022
I1
sS'Histadrut,'
p7023
I1
sS'xMi'
p7024
I1
sS'Good'
p7025
I28
sS'study,'
p7026
I1
sS'written'
p7027
I4
sS'Tzomet'
p7028
I1
sS'identification'
p7029
I1
sS'correctly'
p7030
I3
sS'tens'
p7031
I1
sS'Firefox'
p7032
I1
sS'Higher'
p7033
I3
sS'Wipe'
p7034
I1
sS'IAI.'
p7035
I1
sS'eecs'
p7036
I1
sS"mentor's"
p7037
I1
sS'attention'
p7038
I36
sS'weighing'
p7039
I2
sS'Unit.'
p7040
I2
sS'opening'
p7041
I24
sS'DDD'
p7042
I1
sS'job'
p7043
I40
sS'hypothesis'
p7044
I4
sS'moodle'
p7045
I270
sS'key'
p7046
I6
sS'approval'
p7047
I14
sS'distribution'
p7048
I8
sS'declining'
p7049
I1
sS'monitor'
p7050
I2
sS'commands'
p7051
I1
sS'planned'
p7052
I3
sS'Tsof'
p7053
I1
sS'Yuval'
p7054
I4
sS'career'
p7055
I132
sS'goal'
p7056
I2
sS'Helitsky'
p7057
I1
sS'presentations'
p7058
I1
sS'Gertel'
p7059
I1
sS'Unfortunately,'
p7060
I1
sS'estimation'
p7061
I5
sS'grounds'
p7062
I2
sS'unclear'
p7063
I3
sS'Lod'
p7064
I1
sS'0,000'
p7065
I2
sS'modle'
p7066
I23
sS'cbccc'
p7067
I2
sS'Course.'
p7068
I1
sS'Artificial'
p7069
I4
sS'Los'
p7070
I4
sS'Finally'
p7071
I1
sS'Music'
p7072
I4
sS'together.'
p7073
I1
sS'Lot'
p7074
I4
sS'Physicists'
p7075
I1
sS'table'
p7076
I7
sS'tbGVmdDowY'
p7077
I2
sS'ezif'
p7078
I2
sS'forms'
p7079
I31
sS'InBhZ'
p7080
I1
sS'NCjxvOnNoYXBlZGVmYXVsdHMgdjpleHQ'
p7081
I1
sS'addition'
p7082
I8
sS'franchisee'
p7083
I1
sS'pmi'
p7084
I1
sS'bbc'
p7085
I1
sS'bba'
p7086
I2
sS'quiz'
p7087
I5
sS'shame'
p7088
I1
sS"Matrix's"
p7089
I1
sS'offers'
p7090
I28
sS'treat'
p7091
I2
sS'volunteerism'
p7092
I1
sS'half-hour'
p7093
I1
sS'Sonnenfeld'
p7094
I15
sS'traveling'
p7095
I1
sS'xlsx'
p7096
I11
sS'diversity'
p7097
I1
sS'powerful'
p7098
I1
sS'condition.'
p7099
I1
sS'Income'
p7100
I4
sS'c'
p7101
I243
sS'Courses'
p7102
I3
sS'June.'
p7103
I1
sS'smoking'
p7104
I16
sS'IEC'
p7105
I1
sS'present'
p7106
I8
sS"That's"
p7107
I1
sS'And'
p7108
I45
sS'Barkat'
p7109
I1
sS'Differences'
p7110
I1
sS'self-marketing'
p7111
I1
sS'Cheshvan'
p7112
I1
sS'CDI'
p7113
I1
sS'will'
p7114
I759
sS'Barkan'
p7115
I35
sS'Trumpet'
p7116
I1
sS'Any'
p7117
I3
sS'bb0'
p7118
I4
sS'Yom'
p7119
I5
sS'group'
p7120
I50
sS'examines'
p7121
I5
sS'examiner'
p7122
I15
sS'tar'
p7123
I1
sS'resident'
p7124
I1
sS'thus'
p7125
I1
sS'audiocodes'
p7126
I2
sS'Dekanat'
p7127
I59
sS'examined'
p7128
I2
sS'Reinschmidt'
p7129
I1
sS'songs,'
p7130
I1
sS'You'
p7131
I160
sS'foreign'
p7132
I1
sS'PHP'
p7133
I1
sS'Loving'
p7134
I1
sS'sensitive'
p7135
I4
sS'perhaps'
p7136
I1
sS'began'
p7137
I5
sS'cross'
p7138
I1
sS'campus'
p7139
I30
sS'member'
p7140
I14
sS'speaker'
p7141
I3
sS'hbA0KCXttYXJnaW'
p7142
I1
sS'units'
p7143
I4
sS'wakeup'
p7144
I1
sS'gets'
p7145
I1
sS'Dahan,'
p7146
I2
sS'difficult'
p7147
I10
sS'HIAS'
p7148
I1
sS'http'
p7149
I1340
sS'Third'
p7150
I2
sS'audience.'
p7151
I3
sS'0dfa'
p7152
I2
sS'diploma'
p7153
I1
sS'efad'
p7154
I1
sS'appointments,'
p7155
I1
sS'Audience'
p7156
I1
sS'transformational'
p7157
I1
sS'issuance'
p7158
I2
sS'student'
p7159
I105
sS'Counseling'
p7160
I2
sS'lobby'
p7161
I28
sS'//'
p7162
I12
sS'v0rj'
p7163
I2
sS'transaction'
p7164
I1
sS'undertakes'
p7165
I1
sS'lunch'
p7166
I1
sS'i'
p7167
I7
sS'Bney'
p7168
I1
sS'well'
p7169
I29
sS'9:00'
p7170
I4
sS'States'
p7171
I1
sS'dmlzaXRlZCwgc'
p7172
I1
sS'Hava'
p7173
I16
sS'Have'
p7174
I1
sS'trials'
p7175
I3
sS'Remembrance'
p7176
I10
sS'Emergenc'
p7177
I1
sS'MsIGRpdi'
p7178
I1
sS'ecINee'
p7179
I1
sS'restore'
p7180
I1
sS'BA'
p7181
I3
sS'BB'
p7182
I16
sS'increasingly'
p7183
I1
sS'only.'
p7184
I9
sS'accurate'
p7185
I5
sS'only,'
p7186
I1
sS'obtain'
p7187
I2
sS'ad0d'
p7188
I3
sS'Hasidic'
p7189
I1
sS'sources'
p7190
I1
sS'Sunday'
p7191
I62
sS'Chairman'
p7192
I19
sS'sorted'
p7193
I1
sS'Program,'
p7194
I1
sS'singels'
p7195
I4
sS'coordination'
p7196
I8
sS'Be'
p7197
I2
sS'Bf'
p7198
I1
sS'aXplOjYxMi'
p7199
I1
sS'Bb'
p7200
I1
sS'Islamic'
p7201
I2
sS'payment.'
p7202
I1
sS'payment,'
p7203
I1
sS'supply'
p7204
I2
sS'logged'
p7205
I3
sS'capabilities'
p7206
I2
sS'hall'
p7207
I14
sS'Bt'
p7208
I1
sS'book'
p7209
I1
sS'adoption'
p7210
I1
sS'a0d'
p7211
I2
sS'Bs'
p7212
I1
sS'size.'
p7213
I1
sS'By'
p7214
I2
sS'Exposure'
p7215
I3
sS'Jaffa'
p7216
I2
sS'branch'
p7217
I2
sS'term'
p7218
I6
sS'N0eWxlPjwh'
p7219
I1
sS'Below'
p7220
I4
sS'know'
p7221
I22
sS'Components'
p7222
I3
sS'efadb'
p7223
I2
sS'self-management.'
p7224
I3
sS'immediately'
p7225
I6
sS'qIEZvbnQgRGVmaW'
p7226
I1
sS'intersection'
p7227
I1
sS'percents'
p7228
I1
sS'necessary'
p7229
I2
sS'lost'
p7230
I4
sS'Hyperactivity'
p7231
I1
sS'Dealing'
p7232
I2
sS'Influence'
p7233
I1
sS'lPXN0dWRlbnQ'
p7234
I1
sS'xsb'
p7235
I1
sS'B0'
p7236
I1
sS'payments'
p7237
I1
sS'SQL'
p7238
I1
sS'page'
p7239
I26
sS'B:'
p7240
I2
sS'parity'
p7241
I2
sS'exceed'
p7242
I1
sS'because'
p7243
I9
sS'Shahar'
p7244
I1
sS'Section'
p7245
I16
sS'searching'
p7246
I1
sS'library'
p7247
I7
sS'platforms'
p7248
I1
sS'yZCIgeG'
p7249
I1
sS'past,'
p7250
I1
sS'past.'
p7251
I2
sS'home'
p7252
I15
sS'Zikaron'
p7253
I1
sS'employment'
p7254
I36
sS'Specializations'
p7255
I1
sS'contact:'
p7256
I2
sS'focused'
p7257
I1
sS'again,'
p7258
I1
sS'lead'
p7259
I15
sS'high.'
p7260
I1
sS'Seventh'
p7261
I1
sS'Glazer'
p7262
I1
sS'e-mail'
p7263
I23
sS'bGU'
p7264
I3
sS'ensemble'
p7265
I4
sS'leader'
p7266
I3
sS'locate'
p7267
I1
sS'shlichut'
p7268
I1
sS'Google,'
p7269
I1
sS'Google.'
p7270
I1
sS'engineer.'
p7271
I1
sS'Us'
p7272
I4
sS'Seminars'
p7273
I1
sS'0dccfa'
p7274
I1
sS'prohibited'
p7275
I1
sS'offset'
p7276
I1
sS'Chemistry'
p7277
I2
sS'Microsoft'
p7278
I9
sS'raise'
p7279
I4
sS'carried'
p7280
I11
sS'extension'
p7281
I7
sS'getting'
p7282
I4
sS'column'
p7283
I3
sS'nonverbal'
p7284
I1
sS'chance'
p7285
I8
sS'US'
p7286
I1
sS'Yaacov,'
p7287
I1
sS'monthly'
p7288
I5
sS'carries'
p7289
I1
sS'ashx'
p7290
I7
sS'constructor'
p7291
I3
sS'multi-disciplinary'
p7292
I1
sS'Pts'
p7293
I1
sS'create'
p7294
I6
sS'fund;'
p7295
I1
sS'Dikna'
p7296
I1
sS'Processing'
p7297
I3
sS'previously'
p7298
I2
sS"department's"
p7299
I11
sS'eo'
p7300
I1
sS'Quickly'
p7301
I5
sS'weather'
p7302
I5
sS'bgudebate'
p7303
I2
sS'times.'
p7304
I4
sS'registration'
p7305
I58
sS'IDF'
p7306
I10
sS'ea0'
p7307
I4
sS'0LXNpemU'
p7308
I2
sS'IDA'
p7309
I1
sS'permits'
p7310
I3
sS'additional'
p7311
I39
sS'CyActive'
p7312
I1
sS'Passover'
p7313
I5
sS'transfer'
p7314
I5
sS'Gateway'
p7315
I1
sS'00cfd'
p7316
I2
sS'Invitations'
p7317
I1
sS'Implementation'
p7318
I1
sS'posters'
p7319
I1
sS'dropping'
p7320
I9
sS'notices'
p7321
I1
sS'cGFnZTpXb'
p7322
I1
sS'recruited'
p7323
I5
sS'PMI'
p7324
I1
sS'receipt'
p7325
I2
sS'Vending'
p7326
I1
sS'addition,'
p7327
I4
sS'DADDD'
p7328
I1
sS'hr'
p7329
I5
sS'Science'
p7330
I20
sS'eac'
p7331
I3
sS'Reforms'
p7332
I1
sS'eae'
p7333
I2
sS'ht'
p7334
I1
sS'Chamber'
p7335
I3
sS'Aforoftros'
p7336
I1
sS'Posted'
p7337
I3
sS'0LWZhbWlseToiVGltZXMgTmV'
p7338
I2
sS'highest'
p7339
I1
sS'Consumer'
p7340
I2
sS'he'
p7341
I10
sS'clients,'
p7342
I2
sS'Gathering'
p7343
I4
sS'Industrial'
p7344
I6
sS'Tel'
p7345
I20
sS'Jenny'
p7346
I2
sS'Gold'
p7347
I3
sS'whether'
p7348
I1
sS'cells'
p7349
I1
sS'hosting'
p7350
I2
sS'signed'
p7351
I3
sS'hametz'
p7352
I1
sS'ranks'
p7353
I1
sS'below'
p7354
I27
sS'converted'
p7355
I1
sS'Kashrus'
p7356
I1
sS'Eltel'
p7357
I1
sS'begins,'
p7358
I1
sS'display'
p7359
I1
sS'this?'
p7360
I3
sS'WIX'
p7361
I4
sS'slips'
p7362
I2
sS'efba'
p7363
I2
sS'Pingbacks'
p7364
I1
sS'Challenge-the'
p7365
I1
sS'JndS'
p7366
I1
sS'dialogue'
p7367
I1
sS'JndV'
p7368
I1
sS'Site'
p7369
I2
sS'resumption'
p7370
I2
sS'information,'
p7371
I12
sS'Electronics'
p7372
I1
sS'education'
p7373
I10
sS'functions'
p7374
I6
sS'improving'
p7375
I2
sS'Sciences.'
p7376
I1
sS'Dictators'
p7377
I1
sS'Jobs'
p7378
I13
sS'Vana'
p7379
I1
sS"Payroll's"
p7380
I1
sS'other'
p7381
I24
sS'Besides'
p7382
I1
sS'supervising'
p7383
I1
sS'Improving'
p7384
I1
sS'self-learning'
p7385
I1
sS'lergo'
p7386
I1
sS'bc0'
p7387
I4
sS'contacting'
p7388
I2
sS'Chizi'
p7389
I1
sS'dropped'
p7390
I2
sS'crisis.'
p7391
I1
sS'stay'
p7392
I3
sS'refreshments'
p7393
I6
sS'E-commerce'
p7394
I1
sS'Future'
p7395
I2
sS'backstage'
p7396
I2
sS'pathways'
p7397
I1
sS'else'
p7398
I1
sS'LOCAL'
p7399
I1
sS'Company.'
p7400
I3
sS'dGQgc'
p7401
I1
sS'Recipients'
p7402
I4
sS'repertoire'
p7403
I2
sS'bcd'
p7404
I2
sS'deygXpDqGUXj'
p7405
I1
sS'bcf'
p7406
I4
sS'factors'
p7407
I2
sS'Friday,'
p7408
I2
sS'bca'
p7409
I4
sS'bcc'
p7410
I5
sS'first-served'
p7411
I1
sS'Gilford'
p7412
I1
sS'Company:'
p7413
I1
sS'understand'
p7414
I2
sS'Simcha'
p7415
I1
sS'retirees'
p7416
I4
sS'function.'
p7417
I1
stp7418
Rp7419
.